ARM GAS  /tmp/ccgGExpA.s 			page 1


   1              		.cpu cortex-m4
   2              		.eabi_attribute 27, 1
   3              		.eabi_attribute 28, 1
   4              		.eabi_attribute 20, 1
   5              		.eabi_attribute 21, 1
   6              		.eabi_attribute 23, 3
   7              		.eabi_attribute 24, 1
   8              		.eabi_attribute 25, 1
   9              		.eabi_attribute 26, 1
  10              		.eabi_attribute 30, 1
  11              		.eabi_attribute 34, 1
  12              		.eabi_attribute 18, 4
  13              		.file	"main.c"
  14              		.section	.rodata.str1.4,"aMS",%progbits,1
  15              		.align	2
  16              	.LC2:
  17 0000 64656661 		.ascii	"defaultTask\000"
  17      756C7454 
  17      61736B00 
  18              		.align	2
  19              	.LC4:
  20 000c 426C696E 		.ascii	"BlinkLEDTask\000"
  20      6B4C4544 
  20      5461736B 
  20      00
  21 0019 000000   		.align	2
  22              	.LC6:
  23 001c 4D696E69 		.ascii	"MiniBotInputs\000"
  23      426F7449 
  23      6E707574 
  23      7300
  24 002a 0000     		.align	2
  25              	.LC8:
  26 002c 4170706C 		.ascii	"ApplicationFSM\000"
  26      69636174 
  26      696F6E46 
  26      534D00
  27 003b 00       		.align	2
  28              	.LC10:
  29 003c 456D6572 		.ascii	"EmergencyStopTa\000"
  29      67656E63 
  29      7953746F 
  29      70546100 
  30              		.align	2
  31              	.LC12:
  32 004c 4D6F746F 		.ascii	"MotorControlTas\000"
  32      72436F6E 
  32      74726F6C 
  32      54617300 
  33              		.align	2
  34              	.LC14:
  35 005c 4C434450 		.ascii	"LCDPrintTask\000"
  35      72696E74 
  35      5461736B 
  35      00
  36              		.text
  37              	.Ltext0:
ARM GAS  /tmp/ccgGExpA.s 			page 2


  38              		.cfi_sections	.debug_frame
  39              		.section	.text.MX_GPIO_Init,"ax",%progbits
  40              		.align	1
  41              		.arch armv7e-m
  42              		.syntax unified
  43              		.thumb
  44              		.thumb_func
  45              		.fpu fpv4-sp-d16
  47              	MX_GPIO_Init:
  48              	.LFB250:
  49              		.file 1 "Core/Src/main.c"
   1:Core/Src/main.c **** /* USER CODE BEGIN Header */
   2:Core/Src/main.c **** /**
   3:Core/Src/main.c ****   ******************************************************************************
   4:Core/Src/main.c ****   * @file           : main.c
   5:Core/Src/main.c ****   * @brief          : Main program body
   6:Core/Src/main.c ****   ******************************************************************************
   7:Core/Src/main.c ****   * @attention
   8:Core/Src/main.c ****   *
   9:Core/Src/main.c ****   * Copyright (c) 2024 STMicroelectronics.
  10:Core/Src/main.c ****   * All rights reserved.
  11:Core/Src/main.c ****   *
  12:Core/Src/main.c ****   * This software is licensed under terms that can be found in the LICENSE file
  13:Core/Src/main.c ****   * in the root directory of this software component.
  14:Core/Src/main.c ****   * If no LICENSE file comes with this software, it is provided AS-IS.
  15:Core/Src/main.c ****   *
  16:Core/Src/main.c ****   ******************************************************************************
  17:Core/Src/main.c ****   */
  18:Core/Src/main.c **** /* USER CODE END Header */
  19:Core/Src/main.c **** /* Includes ------------------------------------------------------------------*/
  20:Core/Src/main.c **** #include "main.h"
  21:Core/Src/main.c **** #include "cmsis_os.h"
  22:Core/Src/main.c **** 
  23:Core/Src/main.c **** /* Private includes ----------------------------------------------------------*/
  24:Core/Src/main.c **** /* USER CODE BEGIN Includes */
  25:Core/Src/main.c **** 
  26:Core/Src/main.c **** #include "pca9685.h"
  27:Core/Src/main.c **** #include <stdint.h>
  28:Core/Src/main.c **** 
  29:Core/Src/main.c **** /* USER CODE END Includes */
  30:Core/Src/main.c **** 
  31:Core/Src/main.c **** /* Private typedef -----------------------------------------------------------*/
  32:Core/Src/main.c **** /* USER CODE BEGIN PTD */
  33:Core/Src/main.c **** 
  34:Core/Src/main.c **** /*
  35:Core/Src/main.c ****  * MiniBot Structures
  36:Core/Src/main.c ****  */
  37:Core/Src/main.c **** typedef struct{
  38:Core/Src/main.c **** 	uint8_t  PotNum;
  39:Core/Src/main.c **** 	uint32_t PotMin;
  40:Core/Src/main.c **** 	uint32_t PotMax;
  41:Core/Src/main.c **** 	uint8_t  PotInvertRange;
  42:Core/Src/main.c **** } MiniBot_Joint_Config_t;
  43:Core/Src/main.c **** 
  44:Core/Src/main.c **** typedef struct{
  45:Core/Src/main.c **** 	GPIO_TypeDef* 	GPIOx;
  46:Core/Src/main.c **** 	uint16_t 		GPIO_Pin;
ARM GAS  /tmp/ccgGExpA.s 			page 3


  47:Core/Src/main.c **** } MiniBot_Gripper_Config_t;
  48:Core/Src/main.c **** 
  49:Core/Src/main.c **** typedef struct{
  50:Core/Src/main.c **** 	MiniBot_Joint_Config_t  	Base;
  51:Core/Src/main.c **** 	MiniBot_Joint_Config_t  	Shoulder;
  52:Core/Src/main.c **** 	MiniBot_Joint_Config_t  	Elbow;
  53:Core/Src/main.c **** 	MiniBot_Joint_Config_t  	Wrist;
  54:Core/Src/main.c **** 	MiniBot_Gripper_Config_t 	Gripper;
  55:Core/Src/main.c **** } MiniBot_Config_t;
  56:Core/Src/main.c **** 
  57:Core/Src/main.c **** typedef struct{
  58:Core/Src/main.c **** 	uint32_t BasePotValue;
  59:Core/Src/main.c **** 	uint32_t BasePotMin;
  60:Core/Src/main.c **** 	uint32_t BasePotMax;
  61:Core/Src/main.c **** 	uint32_t ShoulderPotValue;
  62:Core/Src/main.c **** 	uint32_t ShoulderPotMin;
  63:Core/Src/main.c **** 	uint32_t ShoulderPotMax;
  64:Core/Src/main.c **** 	uint32_t ElbowPotValue;
  65:Core/Src/main.c **** 	uint32_t ElbowPotMin;
  66:Core/Src/main.c **** 	uint32_t ElbowPotMax;
  67:Core/Src/main.c **** 	uint32_t WristPotValue;
  68:Core/Src/main.c **** 	uint32_t WristPotMin;
  69:Core/Src/main.c **** 	uint32_t WristPotMax;
  70:Core/Src/main.c **** 	uint8_t  GripperValue;
  71:Core/Src/main.c **** } MiniBot_Qdata;
  72:Core/Src/main.c **** 
  73:Core/Src/main.c **** volatile MiniBot_Qdata Qdata;
  74:Core/Src/main.c **** uint32_t PotRawValue[4];
  75:Core/Src/main.c **** volatile MiniBot_Qdata MiniBot_Qdata_Buf;
  76:Core/Src/main.c **** 
  77:Core/Src/main.c **** 
  78:Core/Src/main.c **** /*
  79:Core/Src/main.c ****  * MegaBot Structures
  80:Core/Src/main.c ****  */
  81:Core/Src/main.c **** typedef struct{
  82:Core/Src/main.c **** 	uint8_t  ServoNum;
  83:Core/Src/main.c **** 	uint16_t ServoMin;
  84:Core/Src/main.c **** 	uint16_t ServoMax;
  85:Core/Src/main.c **** 	uint16_t ServoHomeAngle;
  86:Core/Src/main.c **** } MegaBot_Joint_Config_t;
  87:Core/Src/main.c **** 
  88:Core/Src/main.c **** typedef struct{
  89:Core/Src/main.c **** 	uint8_t  ServoNum;
  90:Core/Src/main.c **** 	uint16_t ServoMin;
  91:Core/Src/main.c **** 	uint16_t ServoMax;
  92:Core/Src/main.c **** 	uint16_t ServoHomeAngle;
  93:Core/Src/main.c **** } MegaBot_Gripper_Config_t;
  94:Core/Src/main.c **** 
  95:Core/Src/main.c **** typedef struct{
  96:Core/Src/main.c **** 	MegaBot_Joint_Config_t  	Base;
  97:Core/Src/main.c **** 	MegaBot_Joint_Config_t  	Shoulder;
  98:Core/Src/main.c **** 	MegaBot_Joint_Config_t  	Elbow;
  99:Core/Src/main.c **** 	MegaBot_Joint_Config_t  	Wrist;
 100:Core/Src/main.c **** 	MegaBot_Gripper_Config_t 	Gripper;
 101:Core/Src/main.c **** } MegaBot_Config_t;
 102:Core/Src/main.c **** 
 103:Core/Src/main.c **** volatile MiniBot_Qdata Temp_Qdata_Buf;
ARM GAS  /tmp/ccgGExpA.s 			page 4


 104:Core/Src/main.c **** volatile MiniBot_Qdata MotorControl_Qdata_Buf;
 105:Core/Src/main.c **** 
 106:Core/Src/main.c **** uint8_t tempFailedToPostMessage = 0;
 107:Core/Src/main.c **** 
 108:Core/Src/main.c **** 
 109:Core/Src/main.c **** enum State{
 110:Core/Src/main.c ****   Init,
 111:Core/Src/main.c ****   Ready,
 112:Core/Src/main.c ****   Running,
 113:Core/Src/main.c ****   EmergencyStop
 114:Core/Src/main.c **** };
 115:Core/Src/main.c **** 
 116:Core/Src/main.c **** volatile enum State state = Init;
 117:Core/Src/main.c **** 
 118:Core/Src/main.c **** /* USER CODE END PTD */
 119:Core/Src/main.c **** 
 120:Core/Src/main.c **** /* Private define ------------------------------------------------------------*/
 121:Core/Src/main.c **** /* USER CODE BEGIN PD */
 122:Core/Src/main.c **** 
 123:Core/Src/main.c **** /* USER CODE END PD */
 124:Core/Src/main.c **** 
 125:Core/Src/main.c **** /* Private macro -------------------------------------------------------------*/
 126:Core/Src/main.c **** /* USER CODE BEGIN PM */
 127:Core/Src/main.c **** 
 128:Core/Src/main.c **** /* USER CODE END PM */
 129:Core/Src/main.c **** 
 130:Core/Src/main.c **** /* Private variables ---------------------------------------------------------*/
 131:Core/Src/main.c **** ADC_HandleTypeDef hadc1;
 132:Core/Src/main.c **** 
 133:Core/Src/main.c **** I2C_HandleTypeDef hi2c1;
 134:Core/Src/main.c **** I2C_HandleTypeDef hi2c2;
 135:Core/Src/main.c **** 
 136:Core/Src/main.c **** UART_HandleTypeDef huart2;
 137:Core/Src/main.c **** 
 138:Core/Src/main.c **** osThreadId defaultTaskHandle;
 139:Core/Src/main.c **** osThreadId BlinkLEDTaskHandle;
 140:Core/Src/main.c **** osThreadId MiniBotInputsHandle;
 141:Core/Src/main.c **** osThreadId ApplicationFSMHandle;
 142:Core/Src/main.c **** osThreadId EmergencyStopTaHandle;
 143:Core/Src/main.c **** osThreadId MotorControlTasHandle;
 144:Core/Src/main.c **** osThreadId LCDPrintTaskHandle;
 145:Core/Src/main.c **** osMessageQId MiniBotInputQueueHandle;
 146:Core/Src/main.c **** osMessageQId MotorControlQueueHandle;
 147:Core/Src/main.c **** osMessageQId LCDPrintQueueHandle;
 148:Core/Src/main.c **** osMutexId StateMutexHandle;
 149:Core/Src/main.c **** /* USER CODE BEGIN PV */
 150:Core/Src/main.c **** 
 151:Core/Src/main.c **** /* USER CODE END PV */
 152:Core/Src/main.c **** 
 153:Core/Src/main.c **** /* Private function prototypes -----------------------------------------------*/
 154:Core/Src/main.c **** void SystemClock_Config(void);
 155:Core/Src/main.c **** static void MX_GPIO_Init(void);
 156:Core/Src/main.c **** static void MX_ADC1_Init(void);
 157:Core/Src/main.c **** static void MX_I2C1_Init(void);
 158:Core/Src/main.c **** static void MX_USART2_UART_Init(void);
 159:Core/Src/main.c **** static void MX_I2C2_Init(void);
 160:Core/Src/main.c **** void StartDefaultTask(void const * argument);
ARM GAS  /tmp/ccgGExpA.s 			page 5


 161:Core/Src/main.c **** void BlinkLEDTaskEntry(void const * argument);
 162:Core/Src/main.c **** void MiniBotInputsEntry(void const * argument);
 163:Core/Src/main.c **** void ApplicationFSMEntry(void const * argument);
 164:Core/Src/main.c **** void EmergencyStopTaskEntry(void const * argument);
 165:Core/Src/main.c **** void MotorControlTaskEntry(void const * argument);
 166:Core/Src/main.c **** void LCDPrintTaskEntry(void const * argument);
 167:Core/Src/main.c **** 
 168:Core/Src/main.c **** /* USER CODE BEGIN PFP */
 169:Core/Src/main.c **** 
 170:Core/Src/main.c **** void MiniBotInit(MiniBot_Config_t* MiniBot);
 171:Core/Src/main.c **** void MegaBotInit(MegaBot_Config_t* MegaBot);
 172:Core/Src/main.c **** void ServoDriverInit(MegaBot_Config_t* MegaBot);
 173:Core/Src/main.c **** 
 174:Core/Src/main.c **** void QPotDataUpdate(uint32_t PotRawValue, volatile MiniBot_Joint_Config_t *Joint, volatile uint32_t
 175:Core/Src/main.c **** 
 176:Core/Src/main.c **** void MoveServo(MegaBot_Config_t* MegaBot, volatile MiniBot_Qdata* MiniBot);
 177:Core/Src/main.c **** uint32_t MAP(uint32_t au32_IN, uint32_t au32_INmin, uint32_t au32_INmax, uint32_t au32_OUTmin, uint
 178:Core/Src/main.c **** 
 179:Core/Src/main.c **** /* USER CODE END PFP */
 180:Core/Src/main.c **** 
 181:Core/Src/main.c **** /* Private user code ---------------------------------------------------------*/
 182:Core/Src/main.c **** /* USER CODE BEGIN 0 */
 183:Core/Src/main.c **** 
 184:Core/Src/main.c **** 
 185:Core/Src/main.c **** /* USER CODE END 0 */
 186:Core/Src/main.c **** 
 187:Core/Src/main.c **** /**
 188:Core/Src/main.c ****   * @brief  The application entry point.
 189:Core/Src/main.c ****   * @retval int
 190:Core/Src/main.c ****   */
 191:Core/Src/main.c **** int main(void)
 192:Core/Src/main.c **** {
 193:Core/Src/main.c **** 
 194:Core/Src/main.c ****   /* USER CODE BEGIN 1 */
 195:Core/Src/main.c **** 
 196:Core/Src/main.c ****   /* USER CODE END 1 */
 197:Core/Src/main.c **** 
 198:Core/Src/main.c ****   /* MCU Configuration--------------------------------------------------------*/
 199:Core/Src/main.c **** 
 200:Core/Src/main.c ****   /* Reset of all peripherals, Initializes the Flash interface and the Systick. */
 201:Core/Src/main.c ****   HAL_Init();
 202:Core/Src/main.c **** 
 203:Core/Src/main.c ****   /* USER CODE BEGIN Init */
 204:Core/Src/main.c **** 
 205:Core/Src/main.c ****   /* USER CODE END Init */
 206:Core/Src/main.c **** 
 207:Core/Src/main.c ****   /* Configure the system clock */
 208:Core/Src/main.c ****   SystemClock_Config();
 209:Core/Src/main.c **** 
 210:Core/Src/main.c ****   /* USER CODE BEGIN SysInit */
 211:Core/Src/main.c **** 
 212:Core/Src/main.c ****   /* USER CODE END SysInit */
 213:Core/Src/main.c **** 
 214:Core/Src/main.c ****   /* Initialize all configured peripherals */
 215:Core/Src/main.c ****   MX_GPIO_Init();
 216:Core/Src/main.c ****   MX_ADC1_Init();
 217:Core/Src/main.c ****   MX_I2C1_Init();
ARM GAS  /tmp/ccgGExpA.s 			page 6


 218:Core/Src/main.c ****   MX_USART2_UART_Init();
 219:Core/Src/main.c ****   MX_I2C2_Init();
 220:Core/Src/main.c ****   /* USER CODE BEGIN 2 */
 221:Core/Src/main.c **** 
 222:Core/Src/main.c ****   /* USER CODE END 2 */
 223:Core/Src/main.c **** 
 224:Core/Src/main.c ****   /* Create the mutex(es) */
 225:Core/Src/main.c ****   /* definition and creation of StateMutex */
 226:Core/Src/main.c ****   osMutexDef(StateMutex);
 227:Core/Src/main.c ****   StateMutexHandle = osMutexCreate(osMutex(StateMutex));
 228:Core/Src/main.c **** 
 229:Core/Src/main.c ****   /* USER CODE BEGIN RTOS_MUTEX */
 230:Core/Src/main.c ****   /* add mutexes, ... */
 231:Core/Src/main.c ****   /* USER CODE END RTOS_MUTEX */
 232:Core/Src/main.c **** 
 233:Core/Src/main.c ****   /* USER CODE BEGIN RTOS_SEMAPHORES */
 234:Core/Src/main.c ****   /* add semaphores, ... */
 235:Core/Src/main.c ****   /* USER CODE END RTOS_SEMAPHORES */
 236:Core/Src/main.c **** 
 237:Core/Src/main.c ****   /* USER CODE BEGIN RTOS_TIMERS */
 238:Core/Src/main.c ****   /* start timers, add new ones, ... */
 239:Core/Src/main.c ****   /* USER CODE END RTOS_TIMERS */
 240:Core/Src/main.c **** 
 241:Core/Src/main.c ****   /* Create the queue(s) */
 242:Core/Src/main.c ****   /* definition and creation of MiniBotInputQueue */
 243:Core/Src/main.c ****   osMessageQDef(MiniBotInputQueue, 16, MiniBot_Qdata);
 244:Core/Src/main.c ****   MiniBotInputQueueHandle = osMessageCreate(osMessageQ(MiniBotInputQueue), NULL);
 245:Core/Src/main.c **** 
 246:Core/Src/main.c ****   /* definition and creation of MotorControlQueue */
 247:Core/Src/main.c ****   osMessageQDef(MotorControlQueue, 16, MiniBot_Qdata);
 248:Core/Src/main.c ****   MotorControlQueueHandle = osMessageCreate(osMessageQ(MotorControlQueue), NULL);
 249:Core/Src/main.c **** 
 250:Core/Src/main.c ****   /* definition and creation of LCDPrintQueue */
 251:Core/Src/main.c ****   osMessageQDef(LCDPrintQueue, 16, uint16_t);
 252:Core/Src/main.c ****   LCDPrintQueueHandle = osMessageCreate(osMessageQ(LCDPrintQueue), NULL);
 253:Core/Src/main.c **** 
 254:Core/Src/main.c ****   /* USER CODE BEGIN RTOS_QUEUES */
 255:Core/Src/main.c ****   /* add queues, ... */
 256:Core/Src/main.c ****   /* USER CODE END RTOS_QUEUES */
 257:Core/Src/main.c **** 
 258:Core/Src/main.c ****   /* Create the thread(s) */
 259:Core/Src/main.c ****   /* definition and creation of defaultTask */
 260:Core/Src/main.c ****   osThreadDef(defaultTask, StartDefaultTask, osPriorityNormal, 0, 128);
 261:Core/Src/main.c ****   defaultTaskHandle = osThreadCreate(osThread(defaultTask), NULL);
 262:Core/Src/main.c **** 
 263:Core/Src/main.c ****   /* definition and creation of BlinkLEDTask */
 264:Core/Src/main.c ****   osThreadDef(BlinkLEDTask, BlinkLEDTaskEntry, osPriorityNormal, 0, 128);
 265:Core/Src/main.c ****   BlinkLEDTaskHandle = osThreadCreate(osThread(BlinkLEDTask), NULL);
 266:Core/Src/main.c **** 
 267:Core/Src/main.c ****   /* definition and creation of MiniBotInputs */
 268:Core/Src/main.c ****   osThreadDef(MiniBotInputs, MiniBotInputsEntry, osPriorityNormal, 0, 512);
 269:Core/Src/main.c ****   MiniBotInputsHandle = osThreadCreate(osThread(MiniBotInputs), NULL);
 270:Core/Src/main.c **** 
 271:Core/Src/main.c ****   /* definition and creation of ApplicationFSM */
 272:Core/Src/main.c ****   osThreadDef(ApplicationFSM, ApplicationFSMEntry, osPriorityHigh, 0, 512);
 273:Core/Src/main.c ****   ApplicationFSMHandle = osThreadCreate(osThread(ApplicationFSM), NULL);
 274:Core/Src/main.c **** 
ARM GAS  /tmp/ccgGExpA.s 			page 7


 275:Core/Src/main.c ****   /* definition and creation of EmergencyStopTa */
 276:Core/Src/main.c ****   osThreadDef(EmergencyStopTa, EmergencyStopTaskEntry, osPriorityNormal, 0, 128);
 277:Core/Src/main.c ****   EmergencyStopTaHandle = osThreadCreate(osThread(EmergencyStopTa), NULL);
 278:Core/Src/main.c **** 
 279:Core/Src/main.c ****   /* definition and creation of MotorControlTas */
 280:Core/Src/main.c ****   osThreadDef(MotorControlTas, MotorControlTaskEntry, osPriorityNormal, 0, 512);
 281:Core/Src/main.c ****   MotorControlTasHandle = osThreadCreate(osThread(MotorControlTas), NULL);
 282:Core/Src/main.c **** 
 283:Core/Src/main.c ****   /* definition and creation of LCDPrintTask */
 284:Core/Src/main.c ****   osThreadDef(LCDPrintTask, LCDPrintTaskEntry, osPriorityNormal, 0, 128);
 285:Core/Src/main.c ****   LCDPrintTaskHandle = osThreadCreate(osThread(LCDPrintTask), NULL);
 286:Core/Src/main.c **** 
 287:Core/Src/main.c ****   /* USER CODE BEGIN RTOS_THREADS */
 288:Core/Src/main.c ****   /* add threads, ... */
 289:Core/Src/main.c ****   /* USER CODE END RTOS_THREADS */
 290:Core/Src/main.c **** 
 291:Core/Src/main.c ****   /* Start scheduler */
 292:Core/Src/main.c ****   osKernelStart();
 293:Core/Src/main.c **** 
 294:Core/Src/main.c ****   /* We should never get here as control is now taken by the scheduler */
 295:Core/Src/main.c **** 
 296:Core/Src/main.c ****   /* Infinite loop */
 297:Core/Src/main.c ****   /* USER CODE BEGIN WHILE */
 298:Core/Src/main.c ****   while (1)
 299:Core/Src/main.c ****   {
 300:Core/Src/main.c ****     /* USER CODE END WHILE */
 301:Core/Src/main.c **** 
 302:Core/Src/main.c ****     /* USER CODE BEGIN 3 */
 303:Core/Src/main.c ****   }
 304:Core/Src/main.c ****   /* USER CODE END 3 */
 305:Core/Src/main.c **** }
 306:Core/Src/main.c **** 
 307:Core/Src/main.c **** /**
 308:Core/Src/main.c ****   * @brief System Clock Configuration
 309:Core/Src/main.c ****   * @retval None
 310:Core/Src/main.c ****   */
 311:Core/Src/main.c **** void SystemClock_Config(void)
 312:Core/Src/main.c **** {
 313:Core/Src/main.c ****   RCC_OscInitTypeDef RCC_OscInitStruct = {0};
 314:Core/Src/main.c ****   RCC_ClkInitTypeDef RCC_ClkInitStruct = {0};
 315:Core/Src/main.c **** 
 316:Core/Src/main.c ****   /** Configure the main internal regulator output voltage
 317:Core/Src/main.c ****   */
 318:Core/Src/main.c ****   __HAL_RCC_PWR_CLK_ENABLE();
 319:Core/Src/main.c ****   __HAL_PWR_VOLTAGESCALING_CONFIG(PWR_REGULATOR_VOLTAGE_SCALE3);
 320:Core/Src/main.c **** 
 321:Core/Src/main.c ****   /** Initializes the RCC Oscillators according to the specified parameters
 322:Core/Src/main.c ****   * in the RCC_OscInitTypeDef structure.
 323:Core/Src/main.c ****   */
 324:Core/Src/main.c ****   RCC_OscInitStruct.OscillatorType = RCC_OSCILLATORTYPE_HSI;
 325:Core/Src/main.c ****   RCC_OscInitStruct.HSIState = RCC_HSI_ON;
 326:Core/Src/main.c ****   RCC_OscInitStruct.HSICalibrationValue = RCC_HSICALIBRATION_DEFAULT;
 327:Core/Src/main.c ****   RCC_OscInitStruct.PLL.PLLState = RCC_PLL_ON;
 328:Core/Src/main.c ****   RCC_OscInitStruct.PLL.PLLSource = RCC_PLLSOURCE_HSI;
 329:Core/Src/main.c ****   RCC_OscInitStruct.PLL.PLLM = 16;
 330:Core/Src/main.c ****   RCC_OscInitStruct.PLL.PLLN = 336;
 331:Core/Src/main.c ****   RCC_OscInitStruct.PLL.PLLP = RCC_PLLP_DIV4;
ARM GAS  /tmp/ccgGExpA.s 			page 8


 332:Core/Src/main.c ****   RCC_OscInitStruct.PLL.PLLQ = 2;
 333:Core/Src/main.c ****   RCC_OscInitStruct.PLL.PLLR = 2;
 334:Core/Src/main.c ****   if (HAL_RCC_OscConfig(&RCC_OscInitStruct) != HAL_OK)
 335:Core/Src/main.c ****   {
 336:Core/Src/main.c ****     Error_Handler();
 337:Core/Src/main.c ****   }
 338:Core/Src/main.c **** 
 339:Core/Src/main.c ****   /** Initializes the CPU, AHB and APB buses clocks
 340:Core/Src/main.c ****   */
 341:Core/Src/main.c ****   RCC_ClkInitStruct.ClockType = RCC_CLOCKTYPE_HCLK|RCC_CLOCKTYPE_SYSCLK
 342:Core/Src/main.c ****                               |RCC_CLOCKTYPE_PCLK1|RCC_CLOCKTYPE_PCLK2;
 343:Core/Src/main.c ****   RCC_ClkInitStruct.SYSCLKSource = RCC_SYSCLKSOURCE_PLLCLK;
 344:Core/Src/main.c ****   RCC_ClkInitStruct.AHBCLKDivider = RCC_SYSCLK_DIV1;
 345:Core/Src/main.c ****   RCC_ClkInitStruct.APB1CLKDivider = RCC_HCLK_DIV2;
 346:Core/Src/main.c ****   RCC_ClkInitStruct.APB2CLKDivider = RCC_HCLK_DIV1;
 347:Core/Src/main.c **** 
 348:Core/Src/main.c ****   if (HAL_RCC_ClockConfig(&RCC_ClkInitStruct, FLASH_LATENCY_2) != HAL_OK)
 349:Core/Src/main.c ****   {
 350:Core/Src/main.c ****     Error_Handler();
 351:Core/Src/main.c ****   }
 352:Core/Src/main.c **** }
 353:Core/Src/main.c **** 
 354:Core/Src/main.c **** /**
 355:Core/Src/main.c ****   * @brief ADC1 Initialization Function
 356:Core/Src/main.c ****   * @param None
 357:Core/Src/main.c ****   * @retval None
 358:Core/Src/main.c ****   */
 359:Core/Src/main.c **** static void MX_ADC1_Init(void)
 360:Core/Src/main.c **** {
 361:Core/Src/main.c **** 
 362:Core/Src/main.c ****   /* USER CODE BEGIN ADC1_Init 0 */
 363:Core/Src/main.c **** 
 364:Core/Src/main.c ****   /* USER CODE END ADC1_Init 0 */
 365:Core/Src/main.c **** 
 366:Core/Src/main.c ****   ADC_ChannelConfTypeDef sConfig = {0};
 367:Core/Src/main.c **** 
 368:Core/Src/main.c ****   /* USER CODE BEGIN ADC1_Init 1 */
 369:Core/Src/main.c **** 
 370:Core/Src/main.c ****   /* USER CODE END ADC1_Init 1 */
 371:Core/Src/main.c **** 
 372:Core/Src/main.c ****   /** Configure the global features of the ADC (Clock, Resolution, Data Alignment and number of con
 373:Core/Src/main.c ****   */
 374:Core/Src/main.c ****   hadc1.Instance = ADC1;
 375:Core/Src/main.c ****   hadc1.Init.ClockPrescaler = ADC_CLOCK_SYNC_PCLK_DIV4;
 376:Core/Src/main.c ****   hadc1.Init.Resolution = ADC_RESOLUTION_12B;
 377:Core/Src/main.c ****   hadc1.Init.ScanConvMode = ENABLE;
 378:Core/Src/main.c ****   hadc1.Init.ContinuousConvMode = DISABLE;
 379:Core/Src/main.c ****   hadc1.Init.DiscontinuousConvMode = ENABLE;
 380:Core/Src/main.c ****   hadc1.Init.NbrOfDiscConversion = 1;
 381:Core/Src/main.c ****   hadc1.Init.ExternalTrigConvEdge = ADC_EXTERNALTRIGCONVEDGE_NONE;
 382:Core/Src/main.c ****   hadc1.Init.ExternalTrigConv = ADC_SOFTWARE_START;
 383:Core/Src/main.c ****   hadc1.Init.DataAlign = ADC_DATAALIGN_RIGHT;
 384:Core/Src/main.c ****   hadc1.Init.NbrOfConversion = 4;
 385:Core/Src/main.c ****   hadc1.Init.DMAContinuousRequests = DISABLE;
 386:Core/Src/main.c ****   hadc1.Init.EOCSelection = ADC_EOC_SINGLE_CONV;
 387:Core/Src/main.c ****   if (HAL_ADC_Init(&hadc1) != HAL_OK)
 388:Core/Src/main.c ****   {
ARM GAS  /tmp/ccgGExpA.s 			page 9


 389:Core/Src/main.c ****     Error_Handler();
 390:Core/Src/main.c ****   }
 391:Core/Src/main.c **** 
 392:Core/Src/main.c ****   /** Configure for the selected ADC regular channel its corresponding rank in the sequencer and it
 393:Core/Src/main.c ****   */
 394:Core/Src/main.c ****   sConfig.Channel = ADC_CHANNEL_0;
 395:Core/Src/main.c ****   sConfig.Rank = 1;
 396:Core/Src/main.c ****   sConfig.SamplingTime = ADC_SAMPLETIME_3CYCLES;
 397:Core/Src/main.c ****   if (HAL_ADC_ConfigChannel(&hadc1, &sConfig) != HAL_OK)
 398:Core/Src/main.c ****   {
 399:Core/Src/main.c ****     Error_Handler();
 400:Core/Src/main.c ****   }
 401:Core/Src/main.c **** 
 402:Core/Src/main.c ****   /** Configure for the selected ADC regular channel its corresponding rank in the sequencer and it
 403:Core/Src/main.c ****   */
 404:Core/Src/main.c ****   sConfig.Channel = ADC_CHANNEL_1;
 405:Core/Src/main.c ****   sConfig.Rank = 2;
 406:Core/Src/main.c ****   if (HAL_ADC_ConfigChannel(&hadc1, &sConfig) != HAL_OK)
 407:Core/Src/main.c ****   {
 408:Core/Src/main.c ****     Error_Handler();
 409:Core/Src/main.c ****   }
 410:Core/Src/main.c **** 
 411:Core/Src/main.c ****   /** Configure for the selected ADC regular channel its corresponding rank in the sequencer and it
 412:Core/Src/main.c ****   */
 413:Core/Src/main.c ****   sConfig.Channel = ADC_CHANNEL_4;
 414:Core/Src/main.c ****   sConfig.Rank = 3;
 415:Core/Src/main.c ****   if (HAL_ADC_ConfigChannel(&hadc1, &sConfig) != HAL_OK)
 416:Core/Src/main.c ****   {
 417:Core/Src/main.c ****     Error_Handler();
 418:Core/Src/main.c ****   }
 419:Core/Src/main.c **** 
 420:Core/Src/main.c ****   /** Configure for the selected ADC regular channel its corresponding rank in the sequencer and it
 421:Core/Src/main.c ****   */
 422:Core/Src/main.c ****   sConfig.Channel = ADC_CHANNEL_8;
 423:Core/Src/main.c ****   sConfig.Rank = 4;
 424:Core/Src/main.c ****   if (HAL_ADC_ConfigChannel(&hadc1, &sConfig) != HAL_OK)
 425:Core/Src/main.c ****   {
 426:Core/Src/main.c ****     Error_Handler();
 427:Core/Src/main.c ****   }
 428:Core/Src/main.c ****   /* USER CODE BEGIN ADC1_Init 2 */
 429:Core/Src/main.c **** 
 430:Core/Src/main.c ****   /* USER CODE END ADC1_Init 2 */
 431:Core/Src/main.c **** 
 432:Core/Src/main.c **** }
 433:Core/Src/main.c **** 
 434:Core/Src/main.c **** /**
 435:Core/Src/main.c ****   * @brief I2C1 Initialization Function
 436:Core/Src/main.c ****   * @param None
 437:Core/Src/main.c ****   * @retval None
 438:Core/Src/main.c ****   */
 439:Core/Src/main.c **** static void MX_I2C1_Init(void)
 440:Core/Src/main.c **** {
 441:Core/Src/main.c **** 
 442:Core/Src/main.c ****   /* USER CODE BEGIN I2C1_Init 0 */
 443:Core/Src/main.c **** 
 444:Core/Src/main.c ****   /* USER CODE END I2C1_Init 0 */
 445:Core/Src/main.c **** 
ARM GAS  /tmp/ccgGExpA.s 			page 10


 446:Core/Src/main.c ****   /* USER CODE BEGIN I2C1_Init 1 */
 447:Core/Src/main.c **** 
 448:Core/Src/main.c ****   /* USER CODE END I2C1_Init 1 */
 449:Core/Src/main.c ****   hi2c1.Instance = I2C1;
 450:Core/Src/main.c ****   hi2c1.Init.ClockSpeed = 100000;
 451:Core/Src/main.c ****   hi2c1.Init.DutyCycle = I2C_DUTYCYCLE_2;
 452:Core/Src/main.c ****   hi2c1.Init.OwnAddress1 = 0;
 453:Core/Src/main.c ****   hi2c1.Init.AddressingMode = I2C_ADDRESSINGMODE_7BIT;
 454:Core/Src/main.c ****   hi2c1.Init.DualAddressMode = I2C_DUALADDRESS_DISABLE;
 455:Core/Src/main.c ****   hi2c1.Init.OwnAddress2 = 0;
 456:Core/Src/main.c ****   hi2c1.Init.GeneralCallMode = I2C_GENERALCALL_DISABLE;
 457:Core/Src/main.c ****   hi2c1.Init.NoStretchMode = I2C_NOSTRETCH_DISABLE;
 458:Core/Src/main.c ****   if (HAL_I2C_Init(&hi2c1) != HAL_OK)
 459:Core/Src/main.c ****   {
 460:Core/Src/main.c ****     Error_Handler();
 461:Core/Src/main.c ****   }
 462:Core/Src/main.c ****   /* USER CODE BEGIN I2C1_Init 2 */
 463:Core/Src/main.c **** 
 464:Core/Src/main.c ****   /* USER CODE END I2C1_Init 2 */
 465:Core/Src/main.c **** 
 466:Core/Src/main.c **** }
 467:Core/Src/main.c **** 
 468:Core/Src/main.c **** /**
 469:Core/Src/main.c ****   * @brief I2C2 Initialization Function
 470:Core/Src/main.c ****   * @param None
 471:Core/Src/main.c ****   * @retval None
 472:Core/Src/main.c ****   */
 473:Core/Src/main.c **** static void MX_I2C2_Init(void)
 474:Core/Src/main.c **** {
 475:Core/Src/main.c **** 
 476:Core/Src/main.c ****   /* USER CODE BEGIN I2C2_Init 0 */
 477:Core/Src/main.c **** 
 478:Core/Src/main.c ****   /* USER CODE END I2C2_Init 0 */
 479:Core/Src/main.c **** 
 480:Core/Src/main.c ****   /* USER CODE BEGIN I2C2_Init 1 */
 481:Core/Src/main.c **** 
 482:Core/Src/main.c ****   /* USER CODE END I2C2_Init 1 */
 483:Core/Src/main.c ****   hi2c2.Instance = I2C2;
 484:Core/Src/main.c ****   hi2c2.Init.ClockSpeed = 100000;
 485:Core/Src/main.c ****   hi2c2.Init.DutyCycle = I2C_DUTYCYCLE_2;
 486:Core/Src/main.c ****   hi2c2.Init.OwnAddress1 = 0;
 487:Core/Src/main.c ****   hi2c2.Init.AddressingMode = I2C_ADDRESSINGMODE_7BIT;
 488:Core/Src/main.c ****   hi2c2.Init.DualAddressMode = I2C_DUALADDRESS_DISABLE;
 489:Core/Src/main.c ****   hi2c2.Init.OwnAddress2 = 0;
 490:Core/Src/main.c ****   hi2c2.Init.GeneralCallMode = I2C_GENERALCALL_DISABLE;
 491:Core/Src/main.c ****   hi2c2.Init.NoStretchMode = I2C_NOSTRETCH_DISABLE;
 492:Core/Src/main.c ****   if (HAL_I2C_Init(&hi2c2) != HAL_OK)
 493:Core/Src/main.c ****   {
 494:Core/Src/main.c ****     Error_Handler();
 495:Core/Src/main.c ****   }
 496:Core/Src/main.c ****   /* USER CODE BEGIN I2C2_Init 2 */
 497:Core/Src/main.c **** 
 498:Core/Src/main.c ****   /* USER CODE END I2C2_Init 2 */
 499:Core/Src/main.c **** 
 500:Core/Src/main.c **** }
 501:Core/Src/main.c **** 
 502:Core/Src/main.c **** /**
ARM GAS  /tmp/ccgGExpA.s 			page 11


 503:Core/Src/main.c ****   * @brief USART2 Initialization Function
 504:Core/Src/main.c ****   * @param None
 505:Core/Src/main.c ****   * @retval None
 506:Core/Src/main.c ****   */
 507:Core/Src/main.c **** static void MX_USART2_UART_Init(void)
 508:Core/Src/main.c **** {
 509:Core/Src/main.c **** 
 510:Core/Src/main.c ****   /* USER CODE BEGIN USART2_Init 0 */
 511:Core/Src/main.c **** 
 512:Core/Src/main.c ****   /* USER CODE END USART2_Init 0 */
 513:Core/Src/main.c **** 
 514:Core/Src/main.c ****   /* USER CODE BEGIN USART2_Init 1 */
 515:Core/Src/main.c **** 
 516:Core/Src/main.c ****   /* USER CODE END USART2_Init 1 */
 517:Core/Src/main.c ****   huart2.Instance = USART2;
 518:Core/Src/main.c ****   huart2.Init.BaudRate = 115200;
 519:Core/Src/main.c ****   huart2.Init.WordLength = UART_WORDLENGTH_8B;
 520:Core/Src/main.c ****   huart2.Init.StopBits = UART_STOPBITS_1;
 521:Core/Src/main.c ****   huart2.Init.Parity = UART_PARITY_NONE;
 522:Core/Src/main.c ****   huart2.Init.Mode = UART_MODE_TX_RX;
 523:Core/Src/main.c ****   huart2.Init.HwFlowCtl = UART_HWCONTROL_NONE;
 524:Core/Src/main.c ****   huart2.Init.OverSampling = UART_OVERSAMPLING_16;
 525:Core/Src/main.c ****   if (HAL_UART_Init(&huart2) != HAL_OK)
 526:Core/Src/main.c ****   {
 527:Core/Src/main.c ****     Error_Handler();
 528:Core/Src/main.c ****   }
 529:Core/Src/main.c ****   /* USER CODE BEGIN USART2_Init 2 */
 530:Core/Src/main.c **** 
 531:Core/Src/main.c ****   /* USER CODE END USART2_Init 2 */
 532:Core/Src/main.c **** 
 533:Core/Src/main.c **** }
 534:Core/Src/main.c **** 
 535:Core/Src/main.c **** /**
 536:Core/Src/main.c ****   * @brief GPIO Initialization Function
 537:Core/Src/main.c ****   * @param None
 538:Core/Src/main.c ****   * @retval None
 539:Core/Src/main.c ****   */
 540:Core/Src/main.c **** static void MX_GPIO_Init(void)
 541:Core/Src/main.c **** {
  50              		.loc 1 541 1 view -0
  51              		.cfi_startproc
  52              		@ args = 0, pretend = 0, frame = 40
  53              		@ frame_needed = 0, uses_anonymous_args = 0
  54 0000 2DE9F041 		push	{r4, r5, r6, r7, r8, lr}
  55              		.cfi_def_cfa_offset 24
  56              		.cfi_offset 4, -24
  57              		.cfi_offset 5, -20
  58              		.cfi_offset 6, -16
  59              		.cfi_offset 7, -12
  60              		.cfi_offset 8, -8
  61              		.cfi_offset 14, -4
  62 0004 8AB0     		sub	sp, sp, #40
  63              		.cfi_def_cfa_offset 64
 542:Core/Src/main.c ****   GPIO_InitTypeDef GPIO_InitStruct = {0};
  64              		.loc 1 542 3 view .LVU1
  65              		.loc 1 542 20 is_stmt 0 view .LVU2
  66 0006 0024     		movs	r4, #0
ARM GAS  /tmp/ccgGExpA.s 			page 12


  67 0008 0594     		str	r4, [sp, #20]
  68 000a 0694     		str	r4, [sp, #24]
  69 000c 0794     		str	r4, [sp, #28]
  70 000e 0894     		str	r4, [sp, #32]
  71 0010 0994     		str	r4, [sp, #36]
 543:Core/Src/main.c **** /* USER CODE BEGIN MX_GPIO_Init_1 */
 544:Core/Src/main.c **** /* USER CODE END MX_GPIO_Init_1 */
 545:Core/Src/main.c **** 
 546:Core/Src/main.c ****   /* GPIO Ports Clock Enable */
 547:Core/Src/main.c ****   __HAL_RCC_GPIOC_CLK_ENABLE();
  72              		.loc 1 547 3 is_stmt 1 view .LVU3
  73              	.LBB4:
  74              		.loc 1 547 3 view .LVU4
  75 0012 0194     		str	r4, [sp, #4]
  76              		.loc 1 547 3 view .LVU5
  77 0014 304B     		ldr	r3, .L3
  78 0016 1A6B     		ldr	r2, [r3, #48]
  79 0018 42F00402 		orr	r2, r2, #4
  80 001c 1A63     		str	r2, [r3, #48]
  81              		.loc 1 547 3 view .LVU6
  82 001e 1A6B     		ldr	r2, [r3, #48]
  83 0020 02F00402 		and	r2, r2, #4
  84 0024 0192     		str	r2, [sp, #4]
  85              		.loc 1 547 3 view .LVU7
  86 0026 019A     		ldr	r2, [sp, #4]
  87              	.LBE4:
  88              		.loc 1 547 3 view .LVU8
 548:Core/Src/main.c ****   __HAL_RCC_GPIOH_CLK_ENABLE();
  89              		.loc 1 548 3 view .LVU9
  90              	.LBB5:
  91              		.loc 1 548 3 view .LVU10
  92 0028 0294     		str	r4, [sp, #8]
  93              		.loc 1 548 3 view .LVU11
  94 002a 1A6B     		ldr	r2, [r3, #48]
  95 002c 42F08002 		orr	r2, r2, #128
  96 0030 1A63     		str	r2, [r3, #48]
  97              		.loc 1 548 3 view .LVU12
  98 0032 1A6B     		ldr	r2, [r3, #48]
  99 0034 02F08002 		and	r2, r2, #128
 100 0038 0292     		str	r2, [sp, #8]
 101              		.loc 1 548 3 view .LVU13
 102 003a 029A     		ldr	r2, [sp, #8]
 103              	.LBE5:
 104              		.loc 1 548 3 view .LVU14
 549:Core/Src/main.c ****   __HAL_RCC_GPIOA_CLK_ENABLE();
 105              		.loc 1 549 3 view .LVU15
 106              	.LBB6:
 107              		.loc 1 549 3 view .LVU16
 108 003c 0394     		str	r4, [sp, #12]
 109              		.loc 1 549 3 view .LVU17
 110 003e 1A6B     		ldr	r2, [r3, #48]
 111 0040 42F00102 		orr	r2, r2, #1
 112 0044 1A63     		str	r2, [r3, #48]
 113              		.loc 1 549 3 view .LVU18
 114 0046 1A6B     		ldr	r2, [r3, #48]
 115 0048 02F00102 		and	r2, r2, #1
 116 004c 0392     		str	r2, [sp, #12]
ARM GAS  /tmp/ccgGExpA.s 			page 13


 117              		.loc 1 549 3 view .LVU19
 118 004e 039A     		ldr	r2, [sp, #12]
 119              	.LBE6:
 120              		.loc 1 549 3 view .LVU20
 550:Core/Src/main.c ****   __HAL_RCC_GPIOB_CLK_ENABLE();
 121              		.loc 1 550 3 view .LVU21
 122              	.LBB7:
 123              		.loc 1 550 3 view .LVU22
 124 0050 0494     		str	r4, [sp, #16]
 125              		.loc 1 550 3 view .LVU23
 126 0052 1A6B     		ldr	r2, [r3, #48]
 127 0054 42F00202 		orr	r2, r2, #2
 128 0058 1A63     		str	r2, [r3, #48]
 129              		.loc 1 550 3 view .LVU24
 130 005a 1B6B     		ldr	r3, [r3, #48]
 131 005c 03F00203 		and	r3, r3, #2
 132 0060 0493     		str	r3, [sp, #16]
 133              		.loc 1 550 3 view .LVU25
 134 0062 049B     		ldr	r3, [sp, #16]
 135              	.LBE7:
 136              		.loc 1 550 3 view .LVU26
 551:Core/Src/main.c **** 
 552:Core/Src/main.c ****   /*Configure GPIO pin Output Level */
 553:Core/Src/main.c ****   HAL_GPIO_WritePin(LD2_GPIO_Port, LD2_Pin, GPIO_PIN_RESET);
 137              		.loc 1 553 3 view .LVU27
 138 0064 1D4E     		ldr	r6, .L3+4
 139 0066 2246     		mov	r2, r4
 140 0068 2021     		movs	r1, #32
 141 006a 3046     		mov	r0, r6
 142 006c FFF7FEFF 		bl	HAL_GPIO_WritePin
 143              	.LVL0:
 554:Core/Src/main.c **** 
 555:Core/Src/main.c ****   /*Configure GPIO pin : B1_Pin */
 556:Core/Src/main.c ****   GPIO_InitStruct.Pin = B1_Pin;
 144              		.loc 1 556 3 view .LVU28
 145              		.loc 1 556 23 is_stmt 0 view .LVU29
 146 0070 4FF40053 		mov	r3, #8192
 147 0074 0593     		str	r3, [sp, #20]
 557:Core/Src/main.c ****   GPIO_InitStruct.Mode = GPIO_MODE_IT_FALLING;
 148              		.loc 1 557 3 is_stmt 1 view .LVU30
 149              		.loc 1 557 24 is_stmt 0 view .LVU31
 150 0076 4FF40418 		mov	r8, #2162688
 151 007a CDF81880 		str	r8, [sp, #24]
 558:Core/Src/main.c ****   GPIO_InitStruct.Pull = GPIO_NOPULL;
 152              		.loc 1 558 3 is_stmt 1 view .LVU32
 153              		.loc 1 558 24 is_stmt 0 view .LVU33
 154 007e 0794     		str	r4, [sp, #28]
 559:Core/Src/main.c ****   HAL_GPIO_Init(B1_GPIO_Port, &GPIO_InitStruct);
 155              		.loc 1 559 3 is_stmt 1 view .LVU34
 156 0080 05A9     		add	r1, sp, #20
 157 0082 1748     		ldr	r0, .L3+8
 158 0084 FFF7FEFF 		bl	HAL_GPIO_Init
 159              	.LVL1:
 560:Core/Src/main.c **** 
 561:Core/Src/main.c ****   /*Configure GPIO pin : LD2_Pin */
 562:Core/Src/main.c ****   GPIO_InitStruct.Pin = LD2_Pin;
 160              		.loc 1 562 3 view .LVU35
ARM GAS  /tmp/ccgGExpA.s 			page 14


 161              		.loc 1 562 23 is_stmt 0 view .LVU36
 162 0088 2027     		movs	r7, #32
 163 008a 0597     		str	r7, [sp, #20]
 563:Core/Src/main.c ****   GPIO_InitStruct.Mode = GPIO_MODE_OUTPUT_PP;
 164              		.loc 1 563 3 is_stmt 1 view .LVU37
 165              		.loc 1 563 24 is_stmt 0 view .LVU38
 166 008c 0125     		movs	r5, #1
 167 008e 0695     		str	r5, [sp, #24]
 564:Core/Src/main.c ****   GPIO_InitStruct.Pull = GPIO_NOPULL;
 168              		.loc 1 564 3 is_stmt 1 view .LVU39
 169              		.loc 1 564 24 is_stmt 0 view .LVU40
 170 0090 0794     		str	r4, [sp, #28]
 565:Core/Src/main.c ****   GPIO_InitStruct.Speed = GPIO_SPEED_FREQ_LOW;
 171              		.loc 1 565 3 is_stmt 1 view .LVU41
 172              		.loc 1 565 25 is_stmt 0 view .LVU42
 173 0092 0894     		str	r4, [sp, #32]
 566:Core/Src/main.c ****   HAL_GPIO_Init(LD2_GPIO_Port, &GPIO_InitStruct);
 174              		.loc 1 566 3 is_stmt 1 view .LVU43
 175 0094 05A9     		add	r1, sp, #20
 176 0096 3046     		mov	r0, r6
 177 0098 FFF7FEFF 		bl	HAL_GPIO_Init
 178              	.LVL2:
 567:Core/Src/main.c **** 
 568:Core/Src/main.c ****   /*Configure GPIO pin : EmergencyStopBtn_Pin */
 569:Core/Src/main.c ****   GPIO_InitStruct.Pin = EmergencyStopBtn_Pin;
 179              		.loc 1 569 3 view .LVU44
 180              		.loc 1 569 23 is_stmt 0 view .LVU45
 181 009c 4FF48073 		mov	r3, #256
 182 00a0 0593     		str	r3, [sp, #20]
 570:Core/Src/main.c ****   GPIO_InitStruct.Mode = GPIO_MODE_IT_FALLING;
 183              		.loc 1 570 3 is_stmt 1 view .LVU46
 184              		.loc 1 570 24 is_stmt 0 view .LVU47
 185 00a2 CDF81880 		str	r8, [sp, #24]
 571:Core/Src/main.c ****   GPIO_InitStruct.Pull = GPIO_PULLUP;
 186              		.loc 1 571 3 is_stmt 1 view .LVU48
 187              		.loc 1 571 24 is_stmt 0 view .LVU49
 188 00a6 0795     		str	r5, [sp, #28]
 572:Core/Src/main.c ****   HAL_GPIO_Init(EmergencyStopBtn_GPIO_Port, &GPIO_InitStruct);
 189              		.loc 1 572 3 is_stmt 1 view .LVU50
 190 00a8 05A9     		add	r1, sp, #20
 191 00aa 3046     		mov	r0, r6
 192 00ac FFF7FEFF 		bl	HAL_GPIO_Init
 193              	.LVL3:
 573:Core/Src/main.c **** 
 574:Core/Src/main.c ****   /*Configure GPIO pin : GripperButton_Pin */
 575:Core/Src/main.c ****   GPIO_InitStruct.Pin = GripperButton_Pin;
 194              		.loc 1 575 3 view .LVU51
 195              		.loc 1 575 23 is_stmt 0 view .LVU52
 196 00b0 4FF40073 		mov	r3, #512
 197 00b4 0593     		str	r3, [sp, #20]
 576:Core/Src/main.c ****   GPIO_InitStruct.Mode = GPIO_MODE_INPUT;
 198              		.loc 1 576 3 is_stmt 1 view .LVU53
 199              		.loc 1 576 24 is_stmt 0 view .LVU54
 200 00b6 0694     		str	r4, [sp, #24]
 577:Core/Src/main.c ****   GPIO_InitStruct.Pull = GPIO_PULLUP;
 201              		.loc 1 577 3 is_stmt 1 view .LVU55
 202              		.loc 1 577 24 is_stmt 0 view .LVU56
ARM GAS  /tmp/ccgGExpA.s 			page 15


 203 00b8 0795     		str	r5, [sp, #28]
 578:Core/Src/main.c ****   HAL_GPIO_Init(GripperButton_GPIO_Port, &GPIO_InitStruct);
 204              		.loc 1 578 3 is_stmt 1 view .LVU57
 205 00ba 05A9     		add	r1, sp, #20
 206 00bc 3046     		mov	r0, r6
 207 00be FFF7FEFF 		bl	HAL_GPIO_Init
 208              	.LVL4:
 579:Core/Src/main.c **** 
 580:Core/Src/main.c ****   /*Configure GPIO pin : ResetBtn_Pin */
 581:Core/Src/main.c ****   GPIO_InitStruct.Pin = ResetBtn_Pin;
 209              		.loc 1 581 3 view .LVU58
 210              		.loc 1 581 23 is_stmt 0 view .LVU59
 211 00c2 0597     		str	r7, [sp, #20]
 582:Core/Src/main.c ****   GPIO_InitStruct.Mode = GPIO_MODE_INPUT;
 212              		.loc 1 582 3 is_stmt 1 view .LVU60
 213              		.loc 1 582 24 is_stmt 0 view .LVU61
 214 00c4 0694     		str	r4, [sp, #24]
 583:Core/Src/main.c ****   GPIO_InitStruct.Pull = GPIO_PULLUP;
 215              		.loc 1 583 3 is_stmt 1 view .LVU62
 216              		.loc 1 583 24 is_stmt 0 view .LVU63
 217 00c6 0795     		str	r5, [sp, #28]
 584:Core/Src/main.c ****   HAL_GPIO_Init(ResetBtn_GPIO_Port, &GPIO_InitStruct);
 218              		.loc 1 584 3 is_stmt 1 view .LVU64
 219 00c8 05A9     		add	r1, sp, #20
 220 00ca 0648     		ldr	r0, .L3+12
 221 00cc FFF7FEFF 		bl	HAL_GPIO_Init
 222              	.LVL5:
 585:Core/Src/main.c **** 
 586:Core/Src/main.c **** /* USER CODE BEGIN MX_GPIO_Init_2 */
 587:Core/Src/main.c **** /* USER CODE END MX_GPIO_Init_2 */
 588:Core/Src/main.c **** }
 223              		.loc 1 588 1 is_stmt 0 view .LVU65
 224 00d0 0AB0     		add	sp, sp, #40
 225              		.cfi_def_cfa_offset 24
 226              		@ sp needed
 227 00d2 BDE8F081 		pop	{r4, r5, r6, r7, r8, pc}
 228              	.L4:
 229 00d6 00BF     		.align	2
 230              	.L3:
 231 00d8 00380240 		.word	1073887232
 232 00dc 00000240 		.word	1073872896
 233 00e0 00080240 		.word	1073874944
 234 00e4 00040240 		.word	1073873920
 235              		.cfi_endproc
 236              	.LFE250:
 238              		.section	.text.StartDefaultTask,"ax",%progbits
 239              		.align	1
 240              		.global	StartDefaultTask
 241              		.syntax unified
 242              		.thumb
 243              		.thumb_func
 244              		.fpu fpv4-sp-d16
 246              	StartDefaultTask:
 247              	.LFB257:
 589:Core/Src/main.c **** 
 590:Core/Src/main.c **** /* USER CODE BEGIN 4 */
 591:Core/Src/main.c **** 
ARM GAS  /tmp/ccgGExpA.s 			page 16


 592:Core/Src/main.c **** 
 593:Core/Src/main.c **** void MiniBotInit(MiniBot_Config_t* MiniBot){
 594:Core/Src/main.c **** 	// Configure Each of the joints
 595:Core/Src/main.c **** 
 596:Core/Src/main.c **** 	  MiniBot->Base.PotNum = 0;
 597:Core/Src/main.c **** 	  MiniBot->Base.PotMin = 800;
 598:Core/Src/main.c **** 	  MiniBot->Base.PotMax = 3400;
 599:Core/Src/main.c **** 	  MiniBot->Base.PotInvertRange = 0;
 600:Core/Src/main.c **** 
 601:Core/Src/main.c **** 	  MiniBot->Shoulder.PotNum = 1;
 602:Core/Src/main.c **** 	  MiniBot->Shoulder.PotMin = 600;
 603:Core/Src/main.c **** 	  MiniBot->Shoulder.PotMax = 3400;
 604:Core/Src/main.c **** 	  MiniBot->Shoulder.PotInvertRange = 0;
 605:Core/Src/main.c **** 
 606:Core/Src/main.c **** 	  MiniBot->Elbow.PotNum = 2;
 607:Core/Src/main.c **** 	  MiniBot->Elbow.PotMin = 600;
 608:Core/Src/main.c **** 	  MiniBot->Elbow.PotMax = 3400;
 609:Core/Src/main.c **** 	  MiniBot->Elbow.PotInvertRange = 0;
 610:Core/Src/main.c **** 
 611:Core/Src/main.c **** 	  MiniBot->Wrist.PotNum = 3;
 612:Core/Src/main.c **** 	  MiniBot->Wrist.PotMin = 600;
 613:Core/Src/main.c **** 	  MiniBot->Wrist.PotMax = 3200;
 614:Core/Src/main.c **** 	  MiniBot->Wrist.PotInvertRange = 1;
 615:Core/Src/main.c **** 
 616:Core/Src/main.c **** 	  MiniBot->Gripper.GPIOx = GPIOA;
 617:Core/Src/main.c **** 	  MiniBot->Gripper.GPIO_Pin = GPIO_PIN_9;
 618:Core/Src/main.c **** }
 619:Core/Src/main.c **** 
 620:Core/Src/main.c **** void MegaBotInit(MegaBot_Config_t* MegaBot){
 621:Core/Src/main.c ****   // Configure Each of the joints
 622:Core/Src/main.c ****   MegaBot->Base.ServoNum = 0;
 623:Core/Src/main.c ****   MegaBot->Base.ServoMin = 0;
 624:Core/Src/main.c ****   MegaBot->Base.ServoMax = 180;
 625:Core/Src/main.c ****   MegaBot->Base.ServoHomeAngle = 90;
 626:Core/Src/main.c **** 
 627:Core/Src/main.c ****   MegaBot->Shoulder.ServoNum = 1;
 628:Core/Src/main.c ****   MegaBot->Shoulder.ServoMin = 0;
 629:Core/Src/main.c ****   MegaBot->Shoulder.ServoMax = 180;
 630:Core/Src/main.c ****   MegaBot->Shoulder.ServoHomeAngle = 0;
 631:Core/Src/main.c **** 
 632:Core/Src/main.c ****   MegaBot->Elbow.ServoNum = 2;
 633:Core/Src/main.c ****   MegaBot->Elbow.ServoMin = 50;
 634:Core/Src/main.c ****   MegaBot->Elbow.ServoMax = 180;
 635:Core/Src/main.c ****   MegaBot->Elbow.ServoHomeAngle = 180;
 636:Core/Src/main.c **** 
 637:Core/Src/main.c ****   MegaBot->Wrist.ServoNum = 3;
 638:Core/Src/main.c ****   MegaBot->Wrist.ServoMin = 0;
 639:Core/Src/main.c ****   MegaBot->Wrist.ServoMax = 180;
 640:Core/Src/main.c ****   MegaBot->Wrist.ServoHomeAngle = 90;
 641:Core/Src/main.c **** 
 642:Core/Src/main.c ****   MegaBot->Gripper.ServoNum = 4;
 643:Core/Src/main.c ****   MegaBot->Gripper.ServoMin = 0;
 644:Core/Src/main.c ****   MegaBot->Gripper.ServoMax = 70;
 645:Core/Src/main.c ****   MegaBot->Gripper.ServoHomeAngle = MegaBot->Gripper.ServoMin;
 646:Core/Src/main.c **** 
 647:Core/Src/main.c ****   ServoDriverInit(MegaBot);
 648:Core/Src/main.c **** }
ARM GAS  /tmp/ccgGExpA.s 			page 17


 649:Core/Src/main.c **** 
 650:Core/Src/main.c **** void ServoDriverInit(MegaBot_Config_t* MegaBot){
 651:Core/Src/main.c ****   PCA9685_Init(&hi2c1);
 652:Core/Src/main.c ****   PCA9685_SetServoAngle(MegaBot->Base.ServoNum, MegaBot->Base.ServoHomeAngle);
 653:Core/Src/main.c ****   PCA9685_SetServoAngle(MegaBot->Shoulder.ServoNum, MegaBot->Shoulder.ServoHomeAngle);
 654:Core/Src/main.c ****   PCA9685_SetServoAngle(MegaBot->Elbow.ServoNum, MegaBot->Elbow.ServoHomeAngle);
 655:Core/Src/main.c ****   PCA9685_SetServoAngle(MegaBot->Wrist.ServoNum, MegaBot->Wrist.ServoHomeAngle);
 656:Core/Src/main.c ****   PCA9685_SetServoAngle(MegaBot->Gripper.ServoNum, MegaBot->Gripper.ServoHomeAngle);
 657:Core/Src/main.c **** }
 658:Core/Src/main.c **** 
 659:Core/Src/main.c **** 
 660:Core/Src/main.c **** void QPotDataUpdate(uint32_t PotRawValue, volatile MiniBot_Joint_Config_t *Joint, volatile uint32_t
 661:Core/Src/main.c ****   if(PotRawValue > *QPotData + 10 || PotRawValue < *QPotData - 10){
 662:Core/Src/main.c ****     if(PotRawValue > Joint->PotMax){
 663:Core/Src/main.c ****       *QPotData = Joint->PotMax;
 664:Core/Src/main.c ****     }else if(PotRawValue < Joint->PotMin){
 665:Core/Src/main.c ****       *QPotData = Joint->PotMin;
 666:Core/Src/main.c ****     }else{
 667:Core/Src/main.c ****       *QPotData = PotRawValue;
 668:Core/Src/main.c ****     }
 669:Core/Src/main.c ****     if(Joint->PotInvertRange){
 670:Core/Src/main.c ****       *QPotData = Joint->PotMax - *QPotData + Joint->PotMin;
 671:Core/Src/main.c ****     }
 672:Core/Src/main.c ****   }
 673:Core/Src/main.c **** }
 674:Core/Src/main.c **** 
 675:Core/Src/main.c **** void MoveServo(MegaBot_Config_t* MegaBot, volatile MiniBot_Qdata* MiniBot){
 676:Core/Src/main.c ****   // MAP each of the angles
 677:Core/Src/main.c ****   // Send each of new Joints angle
 678:Core/Src/main.c ****   float MappedServoAngle;
 679:Core/Src/main.c ****   // Base
 680:Core/Src/main.c ****   MappedServoAngle = MAP(MiniBot->BasePotValue, MiniBot->BasePotMin, MiniBot->BasePotMax, MegaBot->
 681:Core/Src/main.c ****   PCA9685_SetServoAngle(MegaBot->Base.ServoNum, MappedServoAngle);
 682:Core/Src/main.c ****   // Shoulder
 683:Core/Src/main.c ****   MappedServoAngle = MAP(MiniBot->ShoulderPotValue, MiniBot->ShoulderPotMin, MiniBot->ShoulderPotMa
 684:Core/Src/main.c ****   PCA9685_SetServoAngle(MegaBot->Shoulder.ServoNum, MappedServoAngle);
 685:Core/Src/main.c ****   // Elbow
 686:Core/Src/main.c ****   MappedServoAngle = MAP(MiniBot->ElbowPotValue, MiniBot->ElbowPotMin, MiniBot->ElbowPotMax, MegaBo
 687:Core/Src/main.c ****   PCA9685_SetServoAngle(MegaBot->Elbow.ServoNum, MappedServoAngle);
 688:Core/Src/main.c ****   // Wrist
 689:Core/Src/main.c ****   MappedServoAngle = MAP(MiniBot->WristPotValue, MiniBot->WristPotMin, MiniBot->WristPotMax, MegaBo
 690:Core/Src/main.c ****   PCA9685_SetServoAngle(MegaBot->Wrist.ServoNum, MappedServoAngle);
 691:Core/Src/main.c ****   // Gripper
 692:Core/Src/main.c ****   if(MiniBot->GripperValue){
 693:Core/Src/main.c ****     PCA9685_SetServoAngle(MegaBot->Gripper.ServoNum, MegaBot->Gripper.ServoMin);
 694:Core/Src/main.c ****   }else{
 695:Core/Src/main.c ****     PCA9685_SetServoAngle(MegaBot->Gripper.ServoNum, MegaBot->Gripper.ServoMax);
 696:Core/Src/main.c ****   }
 697:Core/Src/main.c **** }
 698:Core/Src/main.c **** 
 699:Core/Src/main.c **** // Used to map the Potentiometer Range (0-4096) to the Servo Range (0-180)
 700:Core/Src/main.c **** uint32_t MAP(uint32_t au32_IN, uint32_t au32_INmin, uint32_t au32_INmax, uint32_t au32_OUTmin, uint
 701:Core/Src/main.c **** {
 702:Core/Src/main.c ****     return ((((au32_IN - au32_INmin)*(au32_OUTmax - au32_OUTmin))/(au32_INmax - au32_INmin)) + au32
 703:Core/Src/main.c **** }
 704:Core/Src/main.c **** 
 705:Core/Src/main.c **** 
ARM GAS  /tmp/ccgGExpA.s 			page 18


 706:Core/Src/main.c **** /* USER CODE END 4 */
 707:Core/Src/main.c **** 
 708:Core/Src/main.c **** /* USER CODE BEGIN Header_StartDefaultTask */
 709:Core/Src/main.c **** /**
 710:Core/Src/main.c ****   * @brief  Function implementing the defaultTask thread.
 711:Core/Src/main.c ****   * @param  argument: Not used
 712:Core/Src/main.c ****   * @retval None
 713:Core/Src/main.c ****   */
 714:Core/Src/main.c **** /* USER CODE END Header_StartDefaultTask */
 715:Core/Src/main.c **** void StartDefaultTask(void const * argument)
 716:Core/Src/main.c **** {
 248              		.loc 1 716 1 is_stmt 1 view -0
 249              		.cfi_startproc
 250              		@ Volatile: function does not return.
 251              		@ args = 0, pretend = 0, frame = 0
 252              		@ frame_needed = 0, uses_anonymous_args = 0
 253              	.LVL6:
 254              		.loc 1 716 1 is_stmt 0 view .LVU67
 255 0000 08B5     		push	{r3, lr}
 256              		.cfi_def_cfa_offset 8
 257              		.cfi_offset 3, -8
 258              		.cfi_offset 14, -4
 259              	.LVL7:
 260              	.L6:
 717:Core/Src/main.c ****   /* USER CODE BEGIN 5 */
 718:Core/Src/main.c ****   /* Infinite loop */
 719:Core/Src/main.c ****   for(;;)
 261              		.loc 1 719 3 is_stmt 1 discriminator 1 view .LVU68
 720:Core/Src/main.c ****   {
 721:Core/Src/main.c ****     HAL_GPIO_WritePin(LD2_GPIO_Port,LD2_Pin, 0);
 262              		.loc 1 721 5 discriminator 1 view .LVU69
 263 0002 0022     		movs	r2, #0
 264 0004 2021     		movs	r1, #32
 265 0006 0448     		ldr	r0, .L8
 266 0008 FFF7FEFF 		bl	HAL_GPIO_WritePin
 267              	.LVL8:
 722:Core/Src/main.c ****     osDelay(1000);
 268              		.loc 1 722 5 discriminator 1 view .LVU70
 269 000c 4FF47A70 		mov	r0, #1000
 270 0010 FFF7FEFF 		bl	osDelay
 271              	.LVL9:
 719:Core/Src/main.c ****   {
 272              		.loc 1 719 8 discriminator 1 view .LVU71
 273 0014 F5E7     		b	.L6
 274              	.L9:
 275 0016 00BF     		.align	2
 276              	.L8:
 277 0018 00000240 		.word	1073872896
 278              		.cfi_endproc
 279              	.LFE257:
 281              		.section	.text.BlinkLEDTaskEntry,"ax",%progbits
 282              		.align	1
 283              		.global	BlinkLEDTaskEntry
 284              		.syntax unified
 285              		.thumb
 286              		.thumb_func
 287              		.fpu fpv4-sp-d16
ARM GAS  /tmp/ccgGExpA.s 			page 19


 289              	BlinkLEDTaskEntry:
 290              	.LFB258:
 723:Core/Src/main.c ****   }
 724:Core/Src/main.c ****   /* USER CODE END 5 */
 725:Core/Src/main.c **** }
 726:Core/Src/main.c **** 
 727:Core/Src/main.c **** /* USER CODE BEGIN Header_BlinkLEDTaskEntry */
 728:Core/Src/main.c **** /**
 729:Core/Src/main.c **** * @brief Function implementing the BlinkLEDTask thread.
 730:Core/Src/main.c **** * @param argument: Not used
 731:Core/Src/main.c **** * @retval None
 732:Core/Src/main.c **** */
 733:Core/Src/main.c **** /* USER CODE END Header_BlinkLEDTaskEntry */
 734:Core/Src/main.c **** void BlinkLEDTaskEntry(void const * argument)
 735:Core/Src/main.c **** {
 291              		.loc 1 735 1 view -0
 292              		.cfi_startproc
 293              		@ Volatile: function does not return.
 294              		@ args = 0, pretend = 0, frame = 0
 295              		@ frame_needed = 0, uses_anonymous_args = 0
 296              	.LVL10:
 297              		.loc 1 735 1 is_stmt 0 view .LVU73
 298 0000 08B5     		push	{r3, lr}
 299              		.cfi_def_cfa_offset 8
 300              		.cfi_offset 3, -8
 301              		.cfi_offset 14, -4
 302              	.LVL11:
 303              	.L11:
 736:Core/Src/main.c ****   /* USER CODE BEGIN BlinkLEDTaskEntry */
 737:Core/Src/main.c ****   /* Infinite loop */
 738:Core/Src/main.c ****   for(;;)
 304              		.loc 1 738 3 is_stmt 1 discriminator 1 view .LVU74
 739:Core/Src/main.c ****   {
 740:Core/Src/main.c ****     
 741:Core/Src/main.c ****     osDelay(500);
 305              		.loc 1 741 5 discriminator 1 view .LVU75
 306 0002 4FF4FA70 		mov	r0, #500
 307 0006 FFF7FEFF 		bl	osDelay
 308              	.LVL12:
 742:Core/Src/main.c ****     HAL_GPIO_WritePin(LD2_GPIO_Port,LD2_Pin, 1);
 309              		.loc 1 742 5 discriminator 1 view .LVU76
 310 000a 0122     		movs	r2, #1
 311 000c 2021     		movs	r1, #32
 312 000e 0448     		ldr	r0, .L13
 313 0010 FFF7FEFF 		bl	HAL_GPIO_WritePin
 314              	.LVL13:
 743:Core/Src/main.c ****     osDelay(500);
 315              		.loc 1 743 5 discriminator 1 view .LVU77
 316 0014 4FF4FA70 		mov	r0, #500
 317 0018 FFF7FEFF 		bl	osDelay
 318              	.LVL14:
 738:Core/Src/main.c ****   {
 319              		.loc 1 738 8 discriminator 1 view .LVU78
 320 001c F1E7     		b	.L11
 321              	.L14:
 322 001e 00BF     		.align	2
 323              	.L13:
ARM GAS  /tmp/ccgGExpA.s 			page 20


 324 0020 00000240 		.word	1073872896
 325              		.cfi_endproc
 326              	.LFE258:
 328              		.section	.text.LCDPrintTaskEntry,"ax",%progbits
 329              		.align	1
 330              		.global	LCDPrintTaskEntry
 331              		.syntax unified
 332              		.thumb
 333              		.thumb_func
 334              		.fpu fpv4-sp-d16
 336              	LCDPrintTaskEntry:
 337              	.LFB263:
 744:Core/Src/main.c ****   }
 745:Core/Src/main.c ****   /* USER CODE END BlinkLEDTaskEntry */
 746:Core/Src/main.c **** }
 747:Core/Src/main.c **** 
 748:Core/Src/main.c **** /* USER CODE BEGIN Header_MiniBotInputsEntry */
 749:Core/Src/main.c **** /**
 750:Core/Src/main.c **** * @brief Function implementing the MiniBotInputs thread.
 751:Core/Src/main.c **** * @param argument: Not used
 752:Core/Src/main.c **** * @retval None
 753:Core/Src/main.c **** */
 754:Core/Src/main.c **** /* USER CODE END Header_MiniBotInputsEntry */
 755:Core/Src/main.c **** void MiniBotInputsEntry(void const * argument)
 756:Core/Src/main.c **** {
 757:Core/Src/main.c ****   /* USER CODE BEGIN MiniBotInputsEntry */
 758:Core/Src/main.c **** 
 759:Core/Src/main.c **** 	MiniBot_Config_t MiniBot;
 760:Core/Src/main.c **** 	MiniBotInit(&MiniBot);
 761:Core/Src/main.c **** 
 762:Core/Src/main.c ****   
 763:Core/Src/main.c ****   // HAL_ADC_Start_DMA(&hadc1, PotRawValue, 4);
 764:Core/Src/main.c **** 
 765:Core/Src/main.c **** 	/* Infinite loop */
 766:Core/Src/main.c **** 	for(;;)
 767:Core/Src/main.c **** 	{
 768:Core/Src/main.c ****     for(uint8_t i=0; i<4; i++){
 769:Core/Src/main.c ****       HAL_ADC_Start(&hadc1);
 770:Core/Src/main.c ****       HAL_ADC_PollForConversion(&hadc1, 1);
 771:Core/Src/main.c ****       PotRawValue[i] = HAL_ADC_GetValue(&hadc1);
 772:Core/Src/main.c ****     }
 773:Core/Src/main.c ****     HAL_ADC_Stop(&hadc1);
 774:Core/Src/main.c **** 
 775:Core/Src/main.c ****     QPotDataUpdate(PotRawValue[0], &MiniBot.Base, &Qdata.BasePotValue);
 776:Core/Src/main.c ****     QPotDataUpdate(PotRawValue[1], &MiniBot.Shoulder, &Qdata.ShoulderPotValue);
 777:Core/Src/main.c ****     QPotDataUpdate(PotRawValue[2], &MiniBot.Elbow, &Qdata.ElbowPotValue);
 778:Core/Src/main.c ****     QPotDataUpdate(PotRawValue[3], &MiniBot.Wrist, &Qdata.WristPotValue);
 779:Core/Src/main.c **** 
 780:Core/Src/main.c ****     Qdata.GripperValue = (uint8_t)HAL_GPIO_ReadPin(GPIOA, GPIO_PIN_9);
 781:Core/Src/main.c ****     
 782:Core/Src/main.c ****     if(MiniBotInputQueueHandle != 0){
 783:Core/Src/main.c ****       if(xQueueSend(MiniBotInputQueueHandle, (void*)&Qdata, portMAX_DELAY) != pdPASS){
 784:Core/Src/main.c ****         // failed to post message
 785:Core/Src/main.c ****         tempFailedToPostMessage = 1;
 786:Core/Src/main.c ****       }
 787:Core/Src/main.c ****     }
 788:Core/Src/main.c ****   
ARM GAS  /tmp/ccgGExpA.s 			page 21


 789:Core/Src/main.c **** 
 790:Core/Src/main.c ****     osDelay(1);
 791:Core/Src/main.c **** 	}
 792:Core/Src/main.c ****   /* USER CODE END MiniBotInputsEntry */
 793:Core/Src/main.c **** }
 794:Core/Src/main.c **** 
 795:Core/Src/main.c **** /* USER CODE BEGIN Header_ApplicationFSMEntry */
 796:Core/Src/main.c **** /**
 797:Core/Src/main.c **** * @brief Function implementing the ApplicationFSM thread.
 798:Core/Src/main.c **** * @param argument: Not used
 799:Core/Src/main.c **** * @retval None
 800:Core/Src/main.c **** */
 801:Core/Src/main.c **** /* USER CODE END Header_ApplicationFSMEntry */
 802:Core/Src/main.c **** void ApplicationFSMEntry(void const * argument)
 803:Core/Src/main.c **** {
 804:Core/Src/main.c ****   /* USER CODE BEGIN ApplicationFSMEntry */
 805:Core/Src/main.c **** 
 806:Core/Src/main.c ****   // enum State state = Init;
 807:Core/Src/main.c ****   // MiniBot_Qdata minibot_data;
 808:Core/Src/main.c **** 
 809:Core/Src/main.c ****   /* Infinite loop */
 810:Core/Src/main.c ****   for(;;)
 811:Core/Src/main.c ****   {
 812:Core/Src/main.c ****     if(state == Init){
 813:Core/Src/main.c ****       state = Ready;
 814:Core/Src/main.c **** 
 815:Core/Src/main.c ****     }else if(state == Ready){
 816:Core/Src/main.c ****       if(xQueueReceive(MiniBotInputQueueHandle, (void*)&MiniBot_Qdata_Buf, portMAX_DELAY) == pdPASS
 817:Core/Src/main.c ****         if(MiniBot_Qdata_Buf.GripperValue == 0){
 818:Core/Src/main.c ****           if(xQueueReceive(MiniBotInputQueueHandle, (void*)&MiniBot_Qdata_Buf, portMAX_DELAY) == pd
 819:Core/Src/main.c ****             if(MiniBot_Qdata_Buf.GripperValue == 1){
 820:Core/Src/main.c ****               state++;
 821:Core/Src/main.c ****             }
 822:Core/Src/main.c ****           }
 823:Core/Src/main.c ****         }
 824:Core/Src/main.c ****       }
 825:Core/Src/main.c **** 
 826:Core/Src/main.c ****     }else if(state == Running){
 827:Core/Src/main.c ****       // Send Minibot_data to the Motor Queue for the Motor Task to handle
 828:Core/Src/main.c ****       if(xQueueReceive(MiniBotInputQueueHandle, (void*)&MiniBot_Qdata_Buf, portMAX_DELAY) == pdPASS
 829:Core/Src/main.c ****         Temp_Qdata_Buf = MiniBot_Qdata_Buf;
 830:Core/Src/main.c ****         xQueueSend(MotorControlQueueHandle, (void*)&Temp_Qdata_Buf, portMAX_DELAY);
 831:Core/Src/main.c ****       }
 832:Core/Src/main.c ****       
 833:Core/Src/main.c ****     }
 834:Core/Src/main.c ****     
 835:Core/Src/main.c ****     if(state == EmergencyStop){
 836:Core/Src/main.c ****       // If reset btn is pressed change state to Ready1
 837:Core/Src/main.c ****     }
 838:Core/Src/main.c **** 
 839:Core/Src/main.c **** 
 840:Core/Src/main.c **** 
 841:Core/Src/main.c ****     osDelay(1);
 842:Core/Src/main.c ****   }
 843:Core/Src/main.c ****   /* USER CODE END ApplicationFSMEntry */
 844:Core/Src/main.c **** }
 845:Core/Src/main.c **** 
ARM GAS  /tmp/ccgGExpA.s 			page 22


 846:Core/Src/main.c **** /* USER CODE BEGIN Header_EmergencyStopTaskEntry */
 847:Core/Src/main.c **** /**
 848:Core/Src/main.c **** * @brief Function implementing the EmergencyStopTa thread.
 849:Core/Src/main.c **** * @param argument: Not used
 850:Core/Src/main.c **** * @retval None
 851:Core/Src/main.c **** */
 852:Core/Src/main.c **** /* USER CODE END Header_EmergencyStopTaskEntry */
 853:Core/Src/main.c **** void EmergencyStopTaskEntry(void const * argument)
 854:Core/Src/main.c **** {
 855:Core/Src/main.c ****   /* USER CODE BEGIN EmergencyStopTaskEntry */
 856:Core/Src/main.c ****   /* Infinite loop */
 857:Core/Src/main.c ****   for(;;)
 858:Core/Src/main.c ****   {
 859:Core/Src/main.c ****     if(HAL_GPIO_ReadPin(GPIOA, GPIO_PIN_8)){
 860:Core/Src/main.c ****       
 861:Core/Src/main.c ****     }
 862:Core/Src/main.c **** 
 863:Core/Src/main.c **** 
 864:Core/Src/main.c ****     osDelay(1);
 865:Core/Src/main.c ****   }
 866:Core/Src/main.c ****   /* USER CODE END EmergencyStopTaskEntry */
 867:Core/Src/main.c **** }
 868:Core/Src/main.c **** 
 869:Core/Src/main.c **** /* USER CODE BEGIN Header_MotorControlTaskEntry */
 870:Core/Src/main.c **** /**
 871:Core/Src/main.c **** * @brief Function implementing the MotorControlTas thread.
 872:Core/Src/main.c **** * @param argument: Not used
 873:Core/Src/main.c **** * @retval None
 874:Core/Src/main.c **** */
 875:Core/Src/main.c **** /* USER CODE END Header_MotorControlTaskEntry */
 876:Core/Src/main.c **** void MotorControlTaskEntry(void const * argument)
 877:Core/Src/main.c **** {
 878:Core/Src/main.c ****   /* USER CODE BEGIN MotorControlTaskEntry */
 879:Core/Src/main.c **** 
 880:Core/Src/main.c ****   MegaBot_Config_t MegaBot;
 881:Core/Src/main.c ****   MegaBotInit(&MegaBot);
 882:Core/Src/main.c ****   ServoDriverInit(&MegaBot);
 883:Core/Src/main.c **** 
 884:Core/Src/main.c **** 
 885:Core/Src/main.c ****   /* Infinite loop */
 886:Core/Src/main.c ****   for(;;)
 887:Core/Src/main.c ****   {
 888:Core/Src/main.c **** 
 889:Core/Src/main.c ****     if(xQueueReceive(MotorControlQueueHandle, (void*)&MotorControl_Qdata_Buf, portMAX_DELAY) == pdP
 890:Core/Src/main.c ****       MoveServo(&MegaBot, &MotorControl_Qdata_Buf);
 891:Core/Src/main.c ****     }
 892:Core/Src/main.c **** 
 893:Core/Src/main.c **** 
 894:Core/Src/main.c **** 
 895:Core/Src/main.c ****     osDelay(1);
 896:Core/Src/main.c ****   }
 897:Core/Src/main.c ****   /* USER CODE END MotorControlTaskEntry */
 898:Core/Src/main.c **** }
 899:Core/Src/main.c **** 
 900:Core/Src/main.c **** /* USER CODE BEGIN Header_LCDPrintTaskEntry */
 901:Core/Src/main.c **** /**
 902:Core/Src/main.c **** * @brief Function implementing the LCDPrintTask thread.
ARM GAS  /tmp/ccgGExpA.s 			page 23


 903:Core/Src/main.c **** * @param argument: Not used
 904:Core/Src/main.c **** * @retval None
 905:Core/Src/main.c **** */
 906:Core/Src/main.c **** /* USER CODE END Header_LCDPrintTaskEntry */
 907:Core/Src/main.c **** void LCDPrintTaskEntry(void const * argument)
 908:Core/Src/main.c **** {
 338              		.loc 1 908 1 view -0
 339              		.cfi_startproc
 340              		@ Volatile: function does not return.
 341              		@ args = 0, pretend = 0, frame = 0
 342              		@ frame_needed = 0, uses_anonymous_args = 0
 343              	.LVL15:
 344              		.loc 1 908 1 is_stmt 0 view .LVU80
 345 0000 08B5     		push	{r3, lr}
 346              		.cfi_def_cfa_offset 8
 347              		.cfi_offset 3, -8
 348              		.cfi_offset 14, -4
 349              	.LVL16:
 350              	.L16:
 909:Core/Src/main.c ****   /* USER CODE BEGIN LCDPrintTaskEntry */
 910:Core/Src/main.c ****   /* Infinite loop */
 911:Core/Src/main.c ****   for(;;)
 351              		.loc 1 911 3 is_stmt 1 discriminator 1 view .LVU81
 912:Core/Src/main.c ****   {
 913:Core/Src/main.c ****     osDelay(1);
 352              		.loc 1 913 5 discriminator 1 view .LVU82
 353 0002 0120     		movs	r0, #1
 354 0004 FFF7FEFF 		bl	osDelay
 355              	.LVL17:
 911:Core/Src/main.c ****   {
 356              		.loc 1 911 8 discriminator 1 view .LVU83
 357 0008 FBE7     		b	.L16
 358              		.cfi_endproc
 359              	.LFE263:
 361              		.section	.text.EmergencyStopTaskEntry,"ax",%progbits
 362              		.align	1
 363              		.global	EmergencyStopTaskEntry
 364              		.syntax unified
 365              		.thumb
 366              		.thumb_func
 367              		.fpu fpv4-sp-d16
 369              	EmergencyStopTaskEntry:
 370              	.LFB261:
 854:Core/Src/main.c ****   /* USER CODE BEGIN EmergencyStopTaskEntry */
 371              		.loc 1 854 1 view -0
 372              		.cfi_startproc
 373              		@ Volatile: function does not return.
 374              		@ args = 0, pretend = 0, frame = 0
 375              		@ frame_needed = 0, uses_anonymous_args = 0
 376              	.LVL18:
 854:Core/Src/main.c ****   /* USER CODE BEGIN EmergencyStopTaskEntry */
 377              		.loc 1 854 1 is_stmt 0 view .LVU85
 378 0000 08B5     		push	{r3, lr}
 379              		.cfi_def_cfa_offset 8
 380              		.cfi_offset 3, -8
 381              		.cfi_offset 14, -4
 382              	.LVL19:
ARM GAS  /tmp/ccgGExpA.s 			page 24


 383              	.L19:
 857:Core/Src/main.c ****   {
 384              		.loc 1 857 3 is_stmt 1 view .LVU86
 859:Core/Src/main.c ****       
 385              		.loc 1 859 5 view .LVU87
 859:Core/Src/main.c ****       
 386              		.loc 1 859 8 is_stmt 0 view .LVU88
 387 0002 4FF48071 		mov	r1, #256
 388 0006 0348     		ldr	r0, .L21
 389 0008 FFF7FEFF 		bl	HAL_GPIO_ReadPin
 390              	.LVL20:
 861:Core/Src/main.c **** 
 391              		.loc 1 861 5 is_stmt 1 view .LVU89
 864:Core/Src/main.c ****   }
 392              		.loc 1 864 5 view .LVU90
 393 000c 0120     		movs	r0, #1
 394 000e FFF7FEFF 		bl	osDelay
 395              	.LVL21:
 857:Core/Src/main.c ****   {
 396              		.loc 1 857 8 view .LVU91
 397 0012 F6E7     		b	.L19
 398              	.L22:
 399              		.align	2
 400              	.L21:
 401 0014 00000240 		.word	1073872896
 402              		.cfi_endproc
 403              	.LFE261:
 405              		.section	.text.ApplicationFSMEntry,"ax",%progbits
 406              		.align	1
 407              		.global	ApplicationFSMEntry
 408              		.syntax unified
 409              		.thumb
 410              		.thumb_func
 411              		.fpu fpv4-sp-d16
 413              	ApplicationFSMEntry:
 414              	.LFB260:
 803:Core/Src/main.c ****   /* USER CODE BEGIN ApplicationFSMEntry */
 415              		.loc 1 803 1 view -0
 416              		.cfi_startproc
 417              		@ Volatile: function does not return.
 418              		@ args = 0, pretend = 0, frame = 0
 419              		@ frame_needed = 0, uses_anonymous_args = 0
 420              	.LVL22:
 803:Core/Src/main.c ****   /* USER CODE BEGIN ApplicationFSMEntry */
 421              		.loc 1 803 1 is_stmt 0 view .LVU93
 422 0000 08B5     		push	{r3, lr}
 423              		.cfi_def_cfa_offset 8
 424              		.cfi_offset 3, -8
 425              		.cfi_offset 14, -4
 426 0002 07E0     		b	.L27
 427              	.LVL23:
 428              	.L29:
 813:Core/Src/main.c **** 
 429              		.loc 1 813 7 is_stmt 1 view .LVU94
 813:Core/Src/main.c **** 
 430              		.loc 1 813 13 is_stmt 0 view .LVU95
 431 0004 2C4B     		ldr	r3, .L31
ARM GAS  /tmp/ccgGExpA.s 			page 25


 432 0006 0122     		movs	r2, #1
 433 0008 1A70     		strb	r2, [r3]
 434              	.L25:
 835:Core/Src/main.c ****       // If reset btn is pressed change state to Ready1
 435              		.loc 1 835 5 is_stmt 1 view .LVU96
 835:Core/Src/main.c ****       // If reset btn is pressed change state to Ready1
 436              		.loc 1 835 14 is_stmt 0 view .LVU97
 437 000a 2B4B     		ldr	r3, .L31
 438 000c 1B78     		ldrb	r3, [r3]	@ zero_extendqisi2
 837:Core/Src/main.c **** 
 439              		.loc 1 837 5 is_stmt 1 view .LVU98
 841:Core/Src/main.c ****   }
 440              		.loc 1 841 5 view .LVU99
 441 000e 0120     		movs	r0, #1
 442 0010 FFF7FEFF 		bl	osDelay
 443              	.LVL24:
 810:Core/Src/main.c ****   {
 444              		.loc 1 810 8 view .LVU100
 445              	.L27:
 810:Core/Src/main.c ****   {
 446              		.loc 1 810 3 view .LVU101
 812:Core/Src/main.c ****       state = Ready;
 447              		.loc 1 812 5 view .LVU102
 812:Core/Src/main.c ****       state = Ready;
 448              		.loc 1 812 14 is_stmt 0 view .LVU103
 449 0014 284B     		ldr	r3, .L31
 450 0016 1B78     		ldrb	r3, [r3]	@ zero_extendqisi2
 812:Core/Src/main.c ****       state = Ready;
 451              		.loc 1 812 7 view .LVU104
 452 0018 002B     		cmp	r3, #0
 453 001a F3D0     		beq	.L29
 815:Core/Src/main.c ****       if(xQueueReceive(MiniBotInputQueueHandle, (void*)&MiniBot_Qdata_Buf, portMAX_DELAY) == pdPASS
 454              		.loc 1 815 11 is_stmt 1 view .LVU105
 815:Core/Src/main.c ****       if(xQueueReceive(MiniBotInputQueueHandle, (void*)&MiniBot_Qdata_Buf, portMAX_DELAY) == pdPASS
 455              		.loc 1 815 20 is_stmt 0 view .LVU106
 456 001c 264B     		ldr	r3, .L31
 457 001e 1B78     		ldrb	r3, [r3]	@ zero_extendqisi2
 458 0020 DBB2     		uxtb	r3, r3
 815:Core/Src/main.c ****       if(xQueueReceive(MiniBotInputQueueHandle, (void*)&MiniBot_Qdata_Buf, portMAX_DELAY) == pdPASS
 459              		.loc 1 815 13 view .LVU107
 460 0022 012B     		cmp	r3, #1
 461 0024 25D0     		beq	.L30
 826:Core/Src/main.c ****       // Send Minibot_data to the Motor Queue for the Motor Task to handle
 462              		.loc 1 826 11 is_stmt 1 view .LVU108
 826:Core/Src/main.c ****       // Send Minibot_data to the Motor Queue for the Motor Task to handle
 463              		.loc 1 826 20 is_stmt 0 view .LVU109
 464 0026 244B     		ldr	r3, .L31
 465 0028 1B78     		ldrb	r3, [r3]	@ zero_extendqisi2
 466 002a DBB2     		uxtb	r3, r3
 826:Core/Src/main.c ****       // Send Minibot_data to the Motor Queue for the Motor Task to handle
 467              		.loc 1 826 13 view .LVU110
 468 002c 022B     		cmp	r3, #2
 469 002e ECD1     		bne	.L25
 828:Core/Src/main.c ****         Temp_Qdata_Buf = MiniBot_Qdata_Buf;
 470              		.loc 1 828 7 is_stmt 1 view .LVU111
 828:Core/Src/main.c ****         Temp_Qdata_Buf = MiniBot_Qdata_Buf;
 471              		.loc 1 828 10 is_stmt 0 view .LVU112
ARM GAS  /tmp/ccgGExpA.s 			page 26


 472 0030 4FF0FF32 		mov	r2, #-1
 473 0034 2149     		ldr	r1, .L31+4
 474 0036 224B     		ldr	r3, .L31+8
 475 0038 1868     		ldr	r0, [r3]
 476 003a FFF7FEFF 		bl	xQueueReceive
 477              	.LVL25:
 828:Core/Src/main.c ****         Temp_Qdata_Buf = MiniBot_Qdata_Buf;
 478              		.loc 1 828 9 view .LVU113
 479 003e 0128     		cmp	r0, #1
 480 0040 E3D1     		bne	.L25
 829:Core/Src/main.c ****         xQueueSend(MotorControlQueueHandle, (void*)&Temp_Qdata_Buf, portMAX_DELAY);
 481              		.loc 1 829 9 is_stmt 1 view .LVU114
 829:Core/Src/main.c ****         xQueueSend(MotorControlQueueHandle, (void*)&Temp_Qdata_Buf, portMAX_DELAY);
 482              		.loc 1 829 24 is_stmt 0 view .LVU115
 483 0042 204D     		ldr	r5, .L31+12
 484 0044 AC46     		mov	ip, r5
 485 0046 1D4C     		ldr	r4, .L31+4
 486 0048 0FCC     		ldmia	r4!, {r0, r1, r2, r3}
 487 004a ACE80F00 		stmia	ip!, {r0, r1, r2, r3}
 488 004e 0FCC     		ldmia	r4!, {r0, r1, r2, r3}
 489 0050 ACE80F00 		stmia	ip!, {r0, r1, r2, r3}
 490 0054 0FCC     		ldmia	r4!, {r0, r1, r2, r3}
 491 0056 ACE80F00 		stmia	ip!, {r0, r1, r2, r3}
 492 005a 2368     		ldr	r3, [r4]
 493 005c CCF80030 		str	r3, [ip]
 830:Core/Src/main.c ****       }
 494              		.loc 1 830 9 is_stmt 1 view .LVU116
 495 0060 0023     		movs	r3, #0
 496 0062 4FF0FF32 		mov	r2, #-1
 497 0066 2946     		mov	r1, r5
 498 0068 1748     		ldr	r0, .L31+16
 499 006a 0068     		ldr	r0, [r0]
 500 006c FFF7FEFF 		bl	xQueueGenericSend
 501              	.LVL26:
 502 0070 CBE7     		b	.L25
 503              	.L30:
 816:Core/Src/main.c ****         if(MiniBot_Qdata_Buf.GripperValue == 0){
 504              		.loc 1 816 7 view .LVU117
 816:Core/Src/main.c ****         if(MiniBot_Qdata_Buf.GripperValue == 0){
 505              		.loc 1 816 10 is_stmt 0 view .LVU118
 506 0072 4FF0FF32 		mov	r2, #-1
 507 0076 1149     		ldr	r1, .L31+4
 508 0078 114B     		ldr	r3, .L31+8
 509 007a 1868     		ldr	r0, [r3]
 510 007c FFF7FEFF 		bl	xQueueReceive
 511              	.LVL27:
 816:Core/Src/main.c ****         if(MiniBot_Qdata_Buf.GripperValue == 0){
 512              		.loc 1 816 9 view .LVU119
 513 0080 0128     		cmp	r0, #1
 514 0082 C2D1     		bne	.L25
 817:Core/Src/main.c ****           if(xQueueReceive(MiniBotInputQueueHandle, (void*)&MiniBot_Qdata_Buf, portMAX_DELAY) == pd
 515              		.loc 1 817 9 is_stmt 1 view .LVU120
 817:Core/Src/main.c ****           if(xQueueReceive(MiniBotInputQueueHandle, (void*)&MiniBot_Qdata_Buf, portMAX_DELAY) == pd
 516              		.loc 1 817 29 is_stmt 0 view .LVU121
 517 0084 0D4B     		ldr	r3, .L31+4
 518 0086 93F83030 		ldrb	r3, [r3, #48]	@ zero_extendqisi2
 817:Core/Src/main.c ****           if(xQueueReceive(MiniBotInputQueueHandle, (void*)&MiniBot_Qdata_Buf, portMAX_DELAY) == pd
ARM GAS  /tmp/ccgGExpA.s 			page 27


 519              		.loc 1 817 11 view .LVU122
 520 008a 002B     		cmp	r3, #0
 521 008c BDD1     		bne	.L25
 818:Core/Src/main.c ****             if(MiniBot_Qdata_Buf.GripperValue == 1){
 522              		.loc 1 818 11 is_stmt 1 view .LVU123
 818:Core/Src/main.c ****             if(MiniBot_Qdata_Buf.GripperValue == 1){
 523              		.loc 1 818 14 is_stmt 0 view .LVU124
 524 008e 4FF0FF32 		mov	r2, #-1
 525 0092 0A49     		ldr	r1, .L31+4
 526 0094 0A4B     		ldr	r3, .L31+8
 527 0096 1868     		ldr	r0, [r3]
 528 0098 FFF7FEFF 		bl	xQueueReceive
 529              	.LVL28:
 818:Core/Src/main.c ****             if(MiniBot_Qdata_Buf.GripperValue == 1){
 530              		.loc 1 818 13 view .LVU125
 531 009c 0128     		cmp	r0, #1
 532 009e B4D1     		bne	.L25
 819:Core/Src/main.c ****               state++;
 533              		.loc 1 819 13 is_stmt 1 view .LVU126
 819:Core/Src/main.c ****               state++;
 534              		.loc 1 819 33 is_stmt 0 view .LVU127
 535 00a0 064B     		ldr	r3, .L31+4
 536 00a2 93F83030 		ldrb	r3, [r3, #48]	@ zero_extendqisi2
 537 00a6 DBB2     		uxtb	r3, r3
 819:Core/Src/main.c ****               state++;
 538              		.loc 1 819 15 view .LVU128
 539 00a8 012B     		cmp	r3, #1
 540 00aa AED1     		bne	.L25
 820:Core/Src/main.c ****             }
 541              		.loc 1 820 15 is_stmt 1 view .LVU129
 820:Core/Src/main.c ****             }
 542              		.loc 1 820 20 is_stmt 0 view .LVU130
 543 00ac 024A     		ldr	r2, .L31
 544 00ae 1378     		ldrb	r3, [r2]	@ zero_extendqisi2
 545 00b0 0133     		adds	r3, r3, #1
 546 00b2 DBB2     		uxtb	r3, r3
 547 00b4 1370     		strb	r3, [r2]
 548 00b6 A8E7     		b	.L25
 549              	.L32:
 550              		.align	2
 551              	.L31:
 552 00b8 00000000 		.word	.LANCHOR0
 553 00bc 00000000 		.word	.LANCHOR1
 554 00c0 00000000 		.word	.LANCHOR2
 555 00c4 00000000 		.word	.LANCHOR3
 556 00c8 00000000 		.word	.LANCHOR4
 557              		.cfi_endproc
 558              	.LFE260:
 560              		.section	.text.MiniBotInit,"ax",%progbits
 561              		.align	1
 562              		.global	MiniBotInit
 563              		.syntax unified
 564              		.thumb
 565              		.thumb_func
 566              		.fpu fpv4-sp-d16
 568              	MiniBotInit:
 569              	.LVL29:
ARM GAS  /tmp/ccgGExpA.s 			page 28


 570              	.LFB251:
 593:Core/Src/main.c **** 	// Configure Each of the joints
 571              		.loc 1 593 44 is_stmt 1 view -0
 572              		.cfi_startproc
 573              		@ args = 0, pretend = 0, frame = 0
 574              		@ frame_needed = 0, uses_anonymous_args = 0
 593:Core/Src/main.c **** 	// Configure Each of the joints
 575              		.loc 1 593 44 is_stmt 0 view .LVU132
 576 0000 00B5     		push	{lr}
 577              		.cfi_def_cfa_offset 4
 578              		.cfi_offset 14, -4
 596:Core/Src/main.c **** 	  MiniBot->Base.PotMin = 800;
 579              		.loc 1 596 4 is_stmt 1 view .LVU133
 596:Core/Src/main.c **** 	  MiniBot->Base.PotMin = 800;
 580              		.loc 1 596 25 is_stmt 0 view .LVU134
 581 0002 0023     		movs	r3, #0
 582 0004 0370     		strb	r3, [r0]
 597:Core/Src/main.c **** 	  MiniBot->Base.PotMax = 3400;
 583              		.loc 1 597 4 is_stmt 1 view .LVU135
 597:Core/Src/main.c **** 	  MiniBot->Base.PotMax = 3400;
 584              		.loc 1 597 25 is_stmt 0 view .LVU136
 585 0006 4FF44872 		mov	r2, #800
 586 000a 4260     		str	r2, [r0, #4]
 598:Core/Src/main.c **** 	  MiniBot->Base.PotInvertRange = 0;
 587              		.loc 1 598 4 is_stmt 1 view .LVU137
 598:Core/Src/main.c **** 	  MiniBot->Base.PotInvertRange = 0;
 588              		.loc 1 598 25 is_stmt 0 view .LVU138
 589 000c 40F64851 		movw	r1, #3400
 590 0010 8160     		str	r1, [r0, #8]
 599:Core/Src/main.c **** 
 591              		.loc 1 599 4 is_stmt 1 view .LVU139
 599:Core/Src/main.c **** 
 592              		.loc 1 599 33 is_stmt 0 view .LVU140
 593 0012 0373     		strb	r3, [r0, #12]
 601:Core/Src/main.c **** 	  MiniBot->Shoulder.PotMin = 600;
 594              		.loc 1 601 4 is_stmt 1 view .LVU141
 601:Core/Src/main.c **** 	  MiniBot->Shoulder.PotMin = 600;
 595              		.loc 1 601 29 is_stmt 0 view .LVU142
 596 0014 4FF0010C 		mov	ip, #1
 597 0018 80F810C0 		strb	ip, [r0, #16]
 602:Core/Src/main.c **** 	  MiniBot->Shoulder.PotMax = 3400;
 598              		.loc 1 602 4 is_stmt 1 view .LVU143
 602:Core/Src/main.c **** 	  MiniBot->Shoulder.PotMax = 3400;
 599              		.loc 1 602 29 is_stmt 0 view .LVU144
 600 001c 4FF41672 		mov	r2, #600
 601 0020 4261     		str	r2, [r0, #20]
 603:Core/Src/main.c **** 	  MiniBot->Shoulder.PotInvertRange = 0;
 602              		.loc 1 603 4 is_stmt 1 view .LVU145
 603:Core/Src/main.c **** 	  MiniBot->Shoulder.PotInvertRange = 0;
 603              		.loc 1 603 29 is_stmt 0 view .LVU146
 604 0022 8161     		str	r1, [r0, #24]
 604:Core/Src/main.c **** 
 605              		.loc 1 604 4 is_stmt 1 view .LVU147
 604:Core/Src/main.c **** 
 606              		.loc 1 604 37 is_stmt 0 view .LVU148
 607 0024 0377     		strb	r3, [r0, #28]
 606:Core/Src/main.c **** 	  MiniBot->Elbow.PotMin = 600;
ARM GAS  /tmp/ccgGExpA.s 			page 29


 608              		.loc 1 606 4 is_stmt 1 view .LVU149
 606:Core/Src/main.c **** 	  MiniBot->Elbow.PotMin = 600;
 609              		.loc 1 606 26 is_stmt 0 view .LVU150
 610 0026 4FF0020E 		mov	lr, #2
 611 002a 80F820E0 		strb	lr, [r0, #32]
 607:Core/Src/main.c **** 	  MiniBot->Elbow.PotMax = 3400;
 612              		.loc 1 607 4 is_stmt 1 view .LVU151
 607:Core/Src/main.c **** 	  MiniBot->Elbow.PotMax = 3400;
 613              		.loc 1 607 26 is_stmt 0 view .LVU152
 614 002e 4262     		str	r2, [r0, #36]
 608:Core/Src/main.c **** 	  MiniBot->Elbow.PotInvertRange = 0;
 615              		.loc 1 608 4 is_stmt 1 view .LVU153
 608:Core/Src/main.c **** 	  MiniBot->Elbow.PotInvertRange = 0;
 616              		.loc 1 608 26 is_stmt 0 view .LVU154
 617 0030 8162     		str	r1, [r0, #40]
 609:Core/Src/main.c **** 
 618              		.loc 1 609 4 is_stmt 1 view .LVU155
 609:Core/Src/main.c **** 
 619              		.loc 1 609 34 is_stmt 0 view .LVU156
 620 0032 80F82C30 		strb	r3, [r0, #44]
 611:Core/Src/main.c **** 	  MiniBot->Wrist.PotMin = 600;
 621              		.loc 1 611 4 is_stmt 1 view .LVU157
 611:Core/Src/main.c **** 	  MiniBot->Wrist.PotMin = 600;
 622              		.loc 1 611 26 is_stmt 0 view .LVU158
 623 0036 0323     		movs	r3, #3
 624 0038 80F83030 		strb	r3, [r0, #48]
 612:Core/Src/main.c **** 	  MiniBot->Wrist.PotMax = 3200;
 625              		.loc 1 612 4 is_stmt 1 view .LVU159
 612:Core/Src/main.c **** 	  MiniBot->Wrist.PotMax = 3200;
 626              		.loc 1 612 26 is_stmt 0 view .LVU160
 627 003c 4263     		str	r2, [r0, #52]
 613:Core/Src/main.c **** 	  MiniBot->Wrist.PotInvertRange = 1;
 628              		.loc 1 613 4 is_stmt 1 view .LVU161
 613:Core/Src/main.c **** 	  MiniBot->Wrist.PotInvertRange = 1;
 629              		.loc 1 613 26 is_stmt 0 view .LVU162
 630 003e 4FF44863 		mov	r3, #3200
 631 0042 8363     		str	r3, [r0, #56]
 614:Core/Src/main.c **** 
 632              		.loc 1 614 4 is_stmt 1 view .LVU163
 614:Core/Src/main.c **** 
 633              		.loc 1 614 34 is_stmt 0 view .LVU164
 634 0044 80F83CC0 		strb	ip, [r0, #60]
 616:Core/Src/main.c **** 	  MiniBot->Gripper.GPIO_Pin = GPIO_PIN_9;
 635              		.loc 1 616 4 is_stmt 1 view .LVU165
 616:Core/Src/main.c **** 	  MiniBot->Gripper.GPIO_Pin = GPIO_PIN_9;
 636              		.loc 1 616 27 is_stmt 0 view .LVU166
 637 0048 034B     		ldr	r3, .L35
 638 004a 0364     		str	r3, [r0, #64]
 617:Core/Src/main.c **** }
 639              		.loc 1 617 4 is_stmt 1 view .LVU167
 617:Core/Src/main.c **** }
 640              		.loc 1 617 30 is_stmt 0 view .LVU168
 641 004c 4FF40073 		mov	r3, #512
 642 0050 A0F84430 		strh	r3, [r0, #68]	@ movhi
 618:Core/Src/main.c **** 
 643              		.loc 1 618 1 view .LVU169
 644 0054 5DF804FB 		ldr	pc, [sp], #4
ARM GAS  /tmp/ccgGExpA.s 			page 30


 645              	.L36:
 646              		.align	2
 647              	.L35:
 648 0058 00000240 		.word	1073872896
 649              		.cfi_endproc
 650              	.LFE251:
 652              		.section	.text.ServoDriverInit,"ax",%progbits
 653              		.align	1
 654              		.global	ServoDriverInit
 655              		.syntax unified
 656              		.thumb
 657              		.thumb_func
 658              		.fpu fpv4-sp-d16
 660              	ServoDriverInit:
 661              	.LVL30:
 662              	.LFB253:
 650:Core/Src/main.c ****   PCA9685_Init(&hi2c1);
 663              		.loc 1 650 48 is_stmt 1 view -0
 664              		.cfi_startproc
 665              		@ args = 0, pretend = 0, frame = 0
 666              		@ frame_needed = 0, uses_anonymous_args = 0
 650:Core/Src/main.c ****   PCA9685_Init(&hi2c1);
 667              		.loc 1 650 48 is_stmt 0 view .LVU171
 668 0000 10B5     		push	{r4, lr}
 669              		.cfi_def_cfa_offset 8
 670              		.cfi_offset 4, -8
 671              		.cfi_offset 14, -4
 672 0002 0446     		mov	r4, r0
 651:Core/Src/main.c ****   PCA9685_SetServoAngle(MegaBot->Base.ServoNum, MegaBot->Base.ServoHomeAngle);
 673              		.loc 1 651 3 is_stmt 1 view .LVU172
 674 0004 1648     		ldr	r0, .L39
 675              	.LVL31:
 651:Core/Src/main.c ****   PCA9685_SetServoAngle(MegaBot->Base.ServoNum, MegaBot->Base.ServoHomeAngle);
 676              		.loc 1 651 3 is_stmt 0 view .LVU173
 677 0006 FFF7FEFF 		bl	PCA9685_Init
 678              	.LVL32:
 652:Core/Src/main.c ****   PCA9685_SetServoAngle(MegaBot->Shoulder.ServoNum, MegaBot->Shoulder.ServoHomeAngle);
 679              		.loc 1 652 3 is_stmt 1 view .LVU174
 652:Core/Src/main.c ****   PCA9685_SetServoAngle(MegaBot->Shoulder.ServoNum, MegaBot->Shoulder.ServoHomeAngle);
 680              		.loc 1 652 62 is_stmt 0 view .LVU175
 681 000a E388     		ldrh	r3, [r4, #6]
 682 000c 00EE103A 		vmov	s0, r3	@ int
 652:Core/Src/main.c ****   PCA9685_SetServoAngle(MegaBot->Shoulder.ServoNum, MegaBot->Shoulder.ServoHomeAngle);
 683              		.loc 1 652 3 view .LVU176
 684 0010 B8EE400A 		vcvt.f32.u32	s0, s0
 685 0014 2078     		ldrb	r0, [r4]	@ zero_extendqisi2
 686 0016 FFF7FEFF 		bl	PCA9685_SetServoAngle
 687              	.LVL33:
 653:Core/Src/main.c ****   PCA9685_SetServoAngle(MegaBot->Elbow.ServoNum, MegaBot->Elbow.ServoHomeAngle);
 688              		.loc 1 653 3 is_stmt 1 view .LVU177
 653:Core/Src/main.c ****   PCA9685_SetServoAngle(MegaBot->Elbow.ServoNum, MegaBot->Elbow.ServoHomeAngle);
 689              		.loc 1 653 70 is_stmt 0 view .LVU178
 690 001a E389     		ldrh	r3, [r4, #14]
 691 001c 00EE103A 		vmov	s0, r3	@ int
 653:Core/Src/main.c ****   PCA9685_SetServoAngle(MegaBot->Elbow.ServoNum, MegaBot->Elbow.ServoHomeAngle);
 692              		.loc 1 653 3 view .LVU179
 693 0020 B8EE400A 		vcvt.f32.u32	s0, s0
ARM GAS  /tmp/ccgGExpA.s 			page 31


 694 0024 207A     		ldrb	r0, [r4, #8]	@ zero_extendqisi2
 695 0026 FFF7FEFF 		bl	PCA9685_SetServoAngle
 696              	.LVL34:
 654:Core/Src/main.c ****   PCA9685_SetServoAngle(MegaBot->Wrist.ServoNum, MegaBot->Wrist.ServoHomeAngle);
 697              		.loc 1 654 3 is_stmt 1 view .LVU180
 654:Core/Src/main.c ****   PCA9685_SetServoAngle(MegaBot->Wrist.ServoNum, MegaBot->Wrist.ServoHomeAngle);
 698              		.loc 1 654 64 is_stmt 0 view .LVU181
 699 002a E38A     		ldrh	r3, [r4, #22]
 700 002c 00EE103A 		vmov	s0, r3	@ int
 654:Core/Src/main.c ****   PCA9685_SetServoAngle(MegaBot->Wrist.ServoNum, MegaBot->Wrist.ServoHomeAngle);
 701              		.loc 1 654 3 view .LVU182
 702 0030 B8EE400A 		vcvt.f32.u32	s0, s0
 703 0034 207C     		ldrb	r0, [r4, #16]	@ zero_extendqisi2
 704 0036 FFF7FEFF 		bl	PCA9685_SetServoAngle
 705              	.LVL35:
 655:Core/Src/main.c ****   PCA9685_SetServoAngle(MegaBot->Gripper.ServoNum, MegaBot->Gripper.ServoHomeAngle);
 706              		.loc 1 655 3 is_stmt 1 view .LVU183
 655:Core/Src/main.c ****   PCA9685_SetServoAngle(MegaBot->Gripper.ServoNum, MegaBot->Gripper.ServoHomeAngle);
 707              		.loc 1 655 64 is_stmt 0 view .LVU184
 708 003a E38B     		ldrh	r3, [r4, #30]
 709 003c 00EE103A 		vmov	s0, r3	@ int
 655:Core/Src/main.c ****   PCA9685_SetServoAngle(MegaBot->Gripper.ServoNum, MegaBot->Gripper.ServoHomeAngle);
 710              		.loc 1 655 3 view .LVU185
 711 0040 B8EE400A 		vcvt.f32.u32	s0, s0
 712 0044 207E     		ldrb	r0, [r4, #24]	@ zero_extendqisi2
 713 0046 FFF7FEFF 		bl	PCA9685_SetServoAngle
 714              	.LVL36:
 656:Core/Src/main.c **** }
 715              		.loc 1 656 3 is_stmt 1 view .LVU186
 656:Core/Src/main.c **** }
 716              		.loc 1 656 68 is_stmt 0 view .LVU187
 717 004a E38C     		ldrh	r3, [r4, #38]
 718 004c 00EE103A 		vmov	s0, r3	@ int
 656:Core/Src/main.c **** }
 719              		.loc 1 656 3 view .LVU188
 720 0050 B8EE400A 		vcvt.f32.u32	s0, s0
 721 0054 94F82000 		ldrb	r0, [r4, #32]	@ zero_extendqisi2
 722 0058 FFF7FEFF 		bl	PCA9685_SetServoAngle
 723              	.LVL37:
 657:Core/Src/main.c **** 
 724              		.loc 1 657 1 view .LVU189
 725 005c 10BD     		pop	{r4, pc}
 726              	.LVL38:
 727              	.L40:
 657:Core/Src/main.c **** 
 728              		.loc 1 657 1 view .LVU190
 729 005e 00BF     		.align	2
 730              	.L39:
 731 0060 00000000 		.word	.LANCHOR5
 732              		.cfi_endproc
 733              	.LFE253:
 735              		.section	.text.MegaBotInit,"ax",%progbits
 736              		.align	1
 737              		.global	MegaBotInit
 738              		.syntax unified
 739              		.thumb
 740              		.thumb_func
ARM GAS  /tmp/ccgGExpA.s 			page 32


 741              		.fpu fpv4-sp-d16
 743              	MegaBotInit:
 744              	.LVL39:
 745              	.LFB252:
 620:Core/Src/main.c ****   // Configure Each of the joints
 746              		.loc 1 620 44 is_stmt 1 view -0
 747              		.cfi_startproc
 748              		@ args = 0, pretend = 0, frame = 0
 749              		@ frame_needed = 0, uses_anonymous_args = 0
 620:Core/Src/main.c ****   // Configure Each of the joints
 750              		.loc 1 620 44 is_stmt 0 view .LVU192
 751 0000 08B5     		push	{r3, lr}
 752              		.cfi_def_cfa_offset 8
 753              		.cfi_offset 3, -8
 754              		.cfi_offset 14, -4
 622:Core/Src/main.c ****   MegaBot->Base.ServoMin = 0;
 755              		.loc 1 622 3 is_stmt 1 view .LVU193
 622:Core/Src/main.c ****   MegaBot->Base.ServoMin = 0;
 756              		.loc 1 622 26 is_stmt 0 view .LVU194
 757 0002 0022     		movs	r2, #0
 758 0004 0270     		strb	r2, [r0]
 623:Core/Src/main.c ****   MegaBot->Base.ServoMax = 180;
 759              		.loc 1 623 3 is_stmt 1 view .LVU195
 623:Core/Src/main.c ****   MegaBot->Base.ServoMax = 180;
 760              		.loc 1 623 26 is_stmt 0 view .LVU196
 761 0006 4280     		strh	r2, [r0, #2]	@ movhi
 624:Core/Src/main.c ****   MegaBot->Base.ServoHomeAngle = 90;
 762              		.loc 1 624 3 is_stmt 1 view .LVU197
 624:Core/Src/main.c ****   MegaBot->Base.ServoHomeAngle = 90;
 763              		.loc 1 624 26 is_stmt 0 view .LVU198
 764 0008 B421     		movs	r1, #180
 765 000a 8180     		strh	r1, [r0, #4]	@ movhi
 625:Core/Src/main.c **** 
 766              		.loc 1 625 3 is_stmt 1 view .LVU199
 625:Core/Src/main.c **** 
 767              		.loc 1 625 32 is_stmt 0 view .LVU200
 768 000c 4FF05A0C 		mov	ip, #90
 769 0010 A0F806C0 		strh	ip, [r0, #6]	@ movhi
 627:Core/Src/main.c ****   MegaBot->Shoulder.ServoMin = 0;
 770              		.loc 1 627 3 is_stmt 1 view .LVU201
 627:Core/Src/main.c ****   MegaBot->Shoulder.ServoMin = 0;
 771              		.loc 1 627 30 is_stmt 0 view .LVU202
 772 0014 4FF0010E 		mov	lr, #1
 773 0018 80F808E0 		strb	lr, [r0, #8]
 628:Core/Src/main.c ****   MegaBot->Shoulder.ServoMax = 180;
 774              		.loc 1 628 3 is_stmt 1 view .LVU203
 628:Core/Src/main.c ****   MegaBot->Shoulder.ServoMax = 180;
 775              		.loc 1 628 30 is_stmt 0 view .LVU204
 776 001c 4281     		strh	r2, [r0, #10]	@ movhi
 629:Core/Src/main.c ****   MegaBot->Shoulder.ServoHomeAngle = 0;
 777              		.loc 1 629 3 is_stmt 1 view .LVU205
 629:Core/Src/main.c ****   MegaBot->Shoulder.ServoHomeAngle = 0;
 778              		.loc 1 629 30 is_stmt 0 view .LVU206
 779 001e 8181     		strh	r1, [r0, #12]	@ movhi
 630:Core/Src/main.c **** 
 780              		.loc 1 630 3 is_stmt 1 view .LVU207
 630:Core/Src/main.c **** 
ARM GAS  /tmp/ccgGExpA.s 			page 33


 781              		.loc 1 630 36 is_stmt 0 view .LVU208
 782 0020 C281     		strh	r2, [r0, #14]	@ movhi
 632:Core/Src/main.c ****   MegaBot->Elbow.ServoMin = 50;
 783              		.loc 1 632 3 is_stmt 1 view .LVU209
 632:Core/Src/main.c ****   MegaBot->Elbow.ServoMin = 50;
 784              		.loc 1 632 27 is_stmt 0 view .LVU210
 785 0022 4FF0020E 		mov	lr, #2
 786 0026 80F810E0 		strb	lr, [r0, #16]
 633:Core/Src/main.c ****   MegaBot->Elbow.ServoMax = 180;
 787              		.loc 1 633 3 is_stmt 1 view .LVU211
 633:Core/Src/main.c ****   MegaBot->Elbow.ServoMax = 180;
 788              		.loc 1 633 27 is_stmt 0 view .LVU212
 789 002a 4FF0320E 		mov	lr, #50
 790 002e A0F812E0 		strh	lr, [r0, #18]	@ movhi
 634:Core/Src/main.c ****   MegaBot->Elbow.ServoHomeAngle = 180;
 791              		.loc 1 634 3 is_stmt 1 view .LVU213
 634:Core/Src/main.c ****   MegaBot->Elbow.ServoHomeAngle = 180;
 792              		.loc 1 634 27 is_stmt 0 view .LVU214
 793 0032 8182     		strh	r1, [r0, #20]	@ movhi
 635:Core/Src/main.c **** 
 794              		.loc 1 635 3 is_stmt 1 view .LVU215
 635:Core/Src/main.c **** 
 795              		.loc 1 635 33 is_stmt 0 view .LVU216
 796 0034 C182     		strh	r1, [r0, #22]	@ movhi
 637:Core/Src/main.c ****   MegaBot->Wrist.ServoMin = 0;
 797              		.loc 1 637 3 is_stmt 1 view .LVU217
 637:Core/Src/main.c ****   MegaBot->Wrist.ServoMin = 0;
 798              		.loc 1 637 27 is_stmt 0 view .LVU218
 799 0036 4FF0030E 		mov	lr, #3
 800 003a 80F818E0 		strb	lr, [r0, #24]
 638:Core/Src/main.c ****   MegaBot->Wrist.ServoMax = 180;
 801              		.loc 1 638 3 is_stmt 1 view .LVU219
 638:Core/Src/main.c ****   MegaBot->Wrist.ServoMax = 180;
 802              		.loc 1 638 27 is_stmt 0 view .LVU220
 803 003e 4283     		strh	r2, [r0, #26]	@ movhi
 639:Core/Src/main.c ****   MegaBot->Wrist.ServoHomeAngle = 90;
 804              		.loc 1 639 3 is_stmt 1 view .LVU221
 639:Core/Src/main.c ****   MegaBot->Wrist.ServoHomeAngle = 90;
 805              		.loc 1 639 27 is_stmt 0 view .LVU222
 806 0040 8183     		strh	r1, [r0, #28]	@ movhi
 640:Core/Src/main.c **** 
 807              		.loc 1 640 3 is_stmt 1 view .LVU223
 640:Core/Src/main.c **** 
 808              		.loc 1 640 33 is_stmt 0 view .LVU224
 809 0042 A0F81EC0 		strh	ip, [r0, #30]	@ movhi
 642:Core/Src/main.c ****   MegaBot->Gripper.ServoMin = 0;
 810              		.loc 1 642 3 is_stmt 1 view .LVU225
 642:Core/Src/main.c ****   MegaBot->Gripper.ServoMin = 0;
 811              		.loc 1 642 29 is_stmt 0 view .LVU226
 812 0046 0421     		movs	r1, #4
 813 0048 80F82010 		strb	r1, [r0, #32]
 643:Core/Src/main.c ****   MegaBot->Gripper.ServoMax = 70;
 814              		.loc 1 643 3 is_stmt 1 view .LVU227
 643:Core/Src/main.c ****   MegaBot->Gripper.ServoMax = 70;
 815              		.loc 1 643 29 is_stmt 0 view .LVU228
 816 004c 4284     		strh	r2, [r0, #34]	@ movhi
 644:Core/Src/main.c ****   MegaBot->Gripper.ServoHomeAngle = MegaBot->Gripper.ServoMin;
ARM GAS  /tmp/ccgGExpA.s 			page 34


 817              		.loc 1 644 3 is_stmt 1 view .LVU229
 644:Core/Src/main.c ****   MegaBot->Gripper.ServoHomeAngle = MegaBot->Gripper.ServoMin;
 818              		.loc 1 644 29 is_stmt 0 view .LVU230
 819 004e 4621     		movs	r1, #70
 820 0050 8184     		strh	r1, [r0, #36]	@ movhi
 645:Core/Src/main.c **** 
 821              		.loc 1 645 3 is_stmt 1 view .LVU231
 645:Core/Src/main.c **** 
 822              		.loc 1 645 35 is_stmt 0 view .LVU232
 823 0052 C284     		strh	r2, [r0, #38]	@ movhi
 647:Core/Src/main.c **** }
 824              		.loc 1 647 3 is_stmt 1 view .LVU233
 825 0054 FFF7FEFF 		bl	ServoDriverInit
 826              	.LVL40:
 648:Core/Src/main.c **** 
 827              		.loc 1 648 1 is_stmt 0 view .LVU234
 828 0058 08BD     		pop	{r3, pc}
 829              		.cfi_endproc
 830              	.LFE252:
 832              		.section	.text.QPotDataUpdate,"ax",%progbits
 833              		.align	1
 834              		.global	QPotDataUpdate
 835              		.syntax unified
 836              		.thumb
 837              		.thumb_func
 838              		.fpu fpv4-sp-d16
 840              	QPotDataUpdate:
 841              	.LVL41:
 842              	.LFB254:
 660:Core/Src/main.c ****   if(PotRawValue > *QPotData + 10 || PotRawValue < *QPotData - 10){
 843              		.loc 1 660 111 is_stmt 1 view -0
 844              		.cfi_startproc
 845              		@ args = 0, pretend = 0, frame = 0
 846              		@ frame_needed = 0, uses_anonymous_args = 0
 847              		@ link register save eliminated.
 661:Core/Src/main.c ****     if(PotRawValue > Joint->PotMax){
 848              		.loc 1 661 3 view .LVU236
 661:Core/Src/main.c ****     if(PotRawValue > Joint->PotMax){
 849              		.loc 1 661 20 is_stmt 0 view .LVU237
 850 0000 1368     		ldr	r3, [r2]
 661:Core/Src/main.c ****     if(PotRawValue > Joint->PotMax){
 851              		.loc 1 661 30 view .LVU238
 852 0002 0A33     		adds	r3, r3, #10
 661:Core/Src/main.c ****     if(PotRawValue > Joint->PotMax){
 853              		.loc 1 661 5 view .LVU239
 854 0004 8342     		cmp	r3, r0
 855 0006 03D3     		bcc	.L44
 661:Core/Src/main.c ****     if(PotRawValue > Joint->PotMax){
 856              		.loc 1 661 52 discriminator 1 view .LVU240
 857 0008 1368     		ldr	r3, [r2]
 661:Core/Src/main.c ****     if(PotRawValue > Joint->PotMax){
 858              		.loc 1 661 62 discriminator 1 view .LVU241
 859 000a 0A3B     		subs	r3, r3, #10
 661:Core/Src/main.c ****     if(PotRawValue > Joint->PotMax){
 860              		.loc 1 661 35 discriminator 1 view .LVU242
 861 000c 8342     		cmp	r3, r0
 862 000e 0CD9     		bls	.L43
ARM GAS  /tmp/ccgGExpA.s 			page 35


 863              	.L44:
 662:Core/Src/main.c ****       *QPotData = Joint->PotMax;
 864              		.loc 1 662 5 is_stmt 1 view .LVU243
 662:Core/Src/main.c ****       *QPotData = Joint->PotMax;
 865              		.loc 1 662 27 is_stmt 0 view .LVU244
 866 0010 8B68     		ldr	r3, [r1, #8]
 662:Core/Src/main.c ****       *QPotData = Joint->PotMax;
 867              		.loc 1 662 7 view .LVU245
 868 0012 8342     		cmp	r3, r0
 869 0014 0AD2     		bcs	.L46
 663:Core/Src/main.c ****     }else if(PotRawValue < Joint->PotMin){
 870              		.loc 1 663 7 is_stmt 1 view .LVU246
 663:Core/Src/main.c ****     }else if(PotRawValue < Joint->PotMin){
 871              		.loc 1 663 24 is_stmt 0 view .LVU247
 872 0016 8B68     		ldr	r3, [r1, #8]
 663:Core/Src/main.c ****     }else if(PotRawValue < Joint->PotMin){
 873              		.loc 1 663 17 view .LVU248
 874 0018 1360     		str	r3, [r2]
 875              	.L47:
 669:Core/Src/main.c ****       *QPotData = Joint->PotMax - *QPotData + Joint->PotMin;
 876              		.loc 1 669 5 is_stmt 1 view .LVU249
 669:Core/Src/main.c ****       *QPotData = Joint->PotMax - *QPotData + Joint->PotMin;
 877              		.loc 1 669 13 is_stmt 0 view .LVU250
 878 001a 0B7B     		ldrb	r3, [r1, #12]	@ zero_extendqisi2
 669:Core/Src/main.c ****       *QPotData = Joint->PotMax - *QPotData + Joint->PotMin;
 879              		.loc 1 669 7 view .LVU251
 880 001c 2BB1     		cbz	r3, .L43
 670:Core/Src/main.c ****     }
 881              		.loc 1 670 7 is_stmt 1 view .LVU252
 670:Core/Src/main.c ****     }
 882              		.loc 1 670 24 is_stmt 0 view .LVU253
 883 001e 8B68     		ldr	r3, [r1, #8]
 670:Core/Src/main.c ****     }
 884              		.loc 1 670 35 view .LVU254
 885 0020 1068     		ldr	r0, [r2]
 886              	.LVL42:
 670:Core/Src/main.c ****     }
 887              		.loc 1 670 33 view .LVU255
 888 0022 1B1A     		subs	r3, r3, r0
 670:Core/Src/main.c ****     }
 889              		.loc 1 670 52 view .LVU256
 890 0024 4968     		ldr	r1, [r1, #4]
 891              	.LVL43:
 670:Core/Src/main.c ****     }
 892              		.loc 1 670 45 view .LVU257
 893 0026 0B44     		add	r3, r3, r1
 670:Core/Src/main.c ****     }
 894              		.loc 1 670 17 view .LVU258
 895 0028 1360     		str	r3, [r2]
 896              	.L43:
 673:Core/Src/main.c **** 
 897              		.loc 1 673 1 view .LVU259
 898 002a 7047     		bx	lr
 899              	.LVL44:
 900              	.L46:
 664:Core/Src/main.c ****       *QPotData = Joint->PotMin;
 901              		.loc 1 664 11 is_stmt 1 view .LVU260
ARM GAS  /tmp/ccgGExpA.s 			page 36


 664:Core/Src/main.c ****       *QPotData = Joint->PotMin;
 902              		.loc 1 664 33 is_stmt 0 view .LVU261
 903 002c 4B68     		ldr	r3, [r1, #4]
 664:Core/Src/main.c ****       *QPotData = Joint->PotMin;
 904              		.loc 1 664 13 view .LVU262
 905 002e 8342     		cmp	r3, r0
 906 0030 02D9     		bls	.L48
 665:Core/Src/main.c ****     }else{
 907              		.loc 1 665 7 is_stmt 1 view .LVU263
 665:Core/Src/main.c ****     }else{
 908              		.loc 1 665 24 is_stmt 0 view .LVU264
 909 0032 4B68     		ldr	r3, [r1, #4]
 665:Core/Src/main.c ****     }else{
 910              		.loc 1 665 17 view .LVU265
 911 0034 1360     		str	r3, [r2]
 912 0036 F0E7     		b	.L47
 913              	.L48:
 667:Core/Src/main.c ****     }
 914              		.loc 1 667 7 is_stmt 1 view .LVU266
 667:Core/Src/main.c ****     }
 915              		.loc 1 667 17 is_stmt 0 view .LVU267
 916 0038 1060     		str	r0, [r2]
 917 003a EEE7     		b	.L47
 918              		.cfi_endproc
 919              	.LFE254:
 921              		.section	.text.MiniBotInputsEntry,"ax",%progbits
 922              		.align	1
 923              		.global	MiniBotInputsEntry
 924              		.syntax unified
 925              		.thumb
 926              		.thumb_func
 927              		.fpu fpv4-sp-d16
 929              	MiniBotInputsEntry:
 930              	.LVL45:
 931              	.LFB259:
 756:Core/Src/main.c ****   /* USER CODE BEGIN MiniBotInputsEntry */
 932              		.loc 1 756 1 is_stmt 1 view -0
 933              		.cfi_startproc
 934              		@ args = 0, pretend = 0, frame = 72
 935              		@ frame_needed = 0, uses_anonymous_args = 0
 756:Core/Src/main.c ****   /* USER CODE BEGIN MiniBotInputsEntry */
 936              		.loc 1 756 1 is_stmt 0 view .LVU269
 937 0000 30B5     		push	{r4, r5, lr}
 938              		.cfi_def_cfa_offset 12
 939              		.cfi_offset 4, -12
 940              		.cfi_offset 5, -8
 941              		.cfi_offset 14, -4
 942 0002 93B0     		sub	sp, sp, #76
 943              		.cfi_def_cfa_offset 88
 759:Core/Src/main.c **** 	MiniBotInit(&MiniBot);
 944              		.loc 1 759 2 is_stmt 1 view .LVU270
 760:Core/Src/main.c **** 
 945              		.loc 1 760 2 view .LVU271
 946 0004 6846     		mov	r0, sp
 947              	.LVL46:
 760:Core/Src/main.c **** 
 948              		.loc 1 760 2 is_stmt 0 view .LVU272
ARM GAS  /tmp/ccgGExpA.s 			page 37


 949 0006 FFF7FEFF 		bl	MiniBotInit
 950              	.LVL47:
 951 000a 45E0     		b	.L53
 952              	.LVL48:
 953              	.L51:
 954              	.LBB8:
 769:Core/Src/main.c ****       HAL_ADC_PollForConversion(&hadc1, 1);
 955              		.loc 1 769 7 is_stmt 1 discriminator 3 view .LVU273
 956 000c 234D     		ldr	r5, .L55
 957 000e 2846     		mov	r0, r5
 958 0010 FFF7FEFF 		bl	HAL_ADC_Start
 959              	.LVL49:
 770:Core/Src/main.c ****       PotRawValue[i] = HAL_ADC_GetValue(&hadc1);
 960              		.loc 1 770 7 discriminator 3 view .LVU274
 961 0014 0121     		movs	r1, #1
 962 0016 2846     		mov	r0, r5
 963 0018 FFF7FEFF 		bl	HAL_ADC_PollForConversion
 964              	.LVL50:
 771:Core/Src/main.c ****     }
 965              		.loc 1 771 7 discriminator 3 view .LVU275
 771:Core/Src/main.c ****     }
 966              		.loc 1 771 24 is_stmt 0 discriminator 3 view .LVU276
 967 001c 2846     		mov	r0, r5
 968 001e FFF7FEFF 		bl	HAL_ADC_GetValue
 969              	.LVL51:
 771:Core/Src/main.c ****     }
 970              		.loc 1 771 22 discriminator 3 view .LVU277
 971 0022 1F4B     		ldr	r3, .L55+4
 972 0024 43F82400 		str	r0, [r3, r4, lsl #2]
 768:Core/Src/main.c ****       HAL_ADC_Start(&hadc1);
 973              		.loc 1 768 27 is_stmt 1 discriminator 3 view .LVU278
 768:Core/Src/main.c ****       HAL_ADC_Start(&hadc1);
 974              		.loc 1 768 28 is_stmt 0 discriminator 3 view .LVU279
 975 0028 0134     		adds	r4, r4, #1
 976              	.LVL52:
 768:Core/Src/main.c ****       HAL_ADC_Start(&hadc1);
 977              		.loc 1 768 28 discriminator 3 view .LVU280
 978 002a E4B2     		uxtb	r4, r4
 979              	.LVL53:
 980              	.L50:
 768:Core/Src/main.c ****       HAL_ADC_Start(&hadc1);
 981              		.loc 1 768 22 is_stmt 1 discriminator 1 view .LVU281
 768:Core/Src/main.c ****       HAL_ADC_Start(&hadc1);
 982              		.loc 1 768 5 is_stmt 0 discriminator 1 view .LVU282
 983 002c 032C     		cmp	r4, #3
 984 002e EDD9     		bls	.L51
 985              	.LBE8:
 773:Core/Src/main.c **** 
 986              		.loc 1 773 5 is_stmt 1 view .LVU283
 987 0030 1A48     		ldr	r0, .L55
 988 0032 FFF7FEFF 		bl	HAL_ADC_Stop
 989              	.LVL54:
 775:Core/Src/main.c ****     QPotDataUpdate(PotRawValue[1], &MiniBot.Shoulder, &Qdata.ShoulderPotValue);
 990              		.loc 1 775 5 view .LVU284
 991 0036 1B4C     		ldr	r4, .L55+8
 992              	.LVL55:
 775:Core/Src/main.c ****     QPotDataUpdate(PotRawValue[1], &MiniBot.Shoulder, &Qdata.ShoulderPotValue);
ARM GAS  /tmp/ccgGExpA.s 			page 38


 993              		.loc 1 775 5 is_stmt 0 view .LVU285
 994 0038 194D     		ldr	r5, .L55+4
 995 003a 2246     		mov	r2, r4
 996 003c 6946     		mov	r1, sp
 997 003e 2868     		ldr	r0, [r5]
 998 0040 FFF7FEFF 		bl	QPotDataUpdate
 999              	.LVL56:
 776:Core/Src/main.c ****     QPotDataUpdate(PotRawValue[2], &MiniBot.Elbow, &Qdata.ElbowPotValue);
 1000              		.loc 1 776 5 is_stmt 1 view .LVU286
 1001 0044 04F10C02 		add	r2, r4, #12
 1002 0048 04A9     		add	r1, sp, #16
 1003 004a 6868     		ldr	r0, [r5, #4]
 1004 004c FFF7FEFF 		bl	QPotDataUpdate
 1005              	.LVL57:
 777:Core/Src/main.c ****     QPotDataUpdate(PotRawValue[3], &MiniBot.Wrist, &Qdata.WristPotValue);
 1006              		.loc 1 777 5 view .LVU287
 1007 0050 04F11802 		add	r2, r4, #24
 1008 0054 08A9     		add	r1, sp, #32
 1009 0056 A868     		ldr	r0, [r5, #8]
 1010 0058 FFF7FEFF 		bl	QPotDataUpdate
 1011              	.LVL58:
 778:Core/Src/main.c **** 
 1012              		.loc 1 778 5 view .LVU288
 1013 005c 04F12402 		add	r2, r4, #36
 1014 0060 0CA9     		add	r1, sp, #48
 1015 0062 E868     		ldr	r0, [r5, #12]
 1016 0064 FFF7FEFF 		bl	QPotDataUpdate
 1017              	.LVL59:
 780:Core/Src/main.c ****     
 1018              		.loc 1 780 5 view .LVU289
 780:Core/Src/main.c ****     
 1019              		.loc 1 780 35 is_stmt 0 view .LVU290
 1020 0068 4FF40071 		mov	r1, #512
 1021 006c 0E48     		ldr	r0, .L55+12
 1022 006e FFF7FEFF 		bl	HAL_GPIO_ReadPin
 1023              	.LVL60:
 780:Core/Src/main.c ****     
 1024              		.loc 1 780 24 view .LVU291
 1025 0072 84F83000 		strb	r0, [r4, #48]
 782:Core/Src/main.c ****       if(xQueueSend(MiniBotInputQueueHandle, (void*)&Qdata, portMAX_DELAY) != pdPASS){
 1026              		.loc 1 782 5 is_stmt 1 view .LVU292
 782:Core/Src/main.c ****       if(xQueueSend(MiniBotInputQueueHandle, (void*)&Qdata, portMAX_DELAY) != pdPASS){
 1027              		.loc 1 782 32 is_stmt 0 view .LVU293
 1028 0076 0D4B     		ldr	r3, .L55+16
 1029 0078 1868     		ldr	r0, [r3]
 782:Core/Src/main.c ****       if(xQueueSend(MiniBotInputQueueHandle, (void*)&Qdata, portMAX_DELAY) != pdPASS){
 1030              		.loc 1 782 7 view .LVU294
 1031 007a 50B1     		cbz	r0, .L52
 783:Core/Src/main.c ****         // failed to post message
 1032              		.loc 1 783 7 is_stmt 1 view .LVU295
 783:Core/Src/main.c ****         // failed to post message
 1033              		.loc 1 783 10 is_stmt 0 view .LVU296
 1034 007c 0023     		movs	r3, #0
 1035 007e 4FF0FF32 		mov	r2, #-1
 1036 0082 2146     		mov	r1, r4
 1037 0084 FFF7FEFF 		bl	xQueueGenericSend
 1038              	.LVL61:
ARM GAS  /tmp/ccgGExpA.s 			page 39


 783:Core/Src/main.c ****         // failed to post message
 1039              		.loc 1 783 9 view .LVU297
 1040 0088 0128     		cmp	r0, #1
 1041 008a 02D0     		beq	.L52
 785:Core/Src/main.c ****       }
 1042              		.loc 1 785 9 is_stmt 1 view .LVU298
 785:Core/Src/main.c ****       }
 1043              		.loc 1 785 33 is_stmt 0 view .LVU299
 1044 008c 084B     		ldr	r3, .L55+20
 1045 008e 0122     		movs	r2, #1
 1046 0090 1A70     		strb	r2, [r3]
 1047              	.L52:
 790:Core/Src/main.c **** 	}
 1048              		.loc 1 790 5 is_stmt 1 view .LVU300
 1049 0092 0120     		movs	r0, #1
 1050 0094 FFF7FEFF 		bl	osDelay
 1051              	.LVL62:
 766:Core/Src/main.c **** 	{
 1052              		.loc 1 766 7 view .LVU301
 1053              	.L53:
 766:Core/Src/main.c **** 	{
 1054              		.loc 1 766 2 view .LVU302
 768:Core/Src/main.c ****       HAL_ADC_Start(&hadc1);
 1055              		.loc 1 768 5 view .LVU303
 1056              	.LBB9:
 768:Core/Src/main.c ****       HAL_ADC_Start(&hadc1);
 1057              		.loc 1 768 9 view .LVU304
 768:Core/Src/main.c ****       HAL_ADC_Start(&hadc1);
 1058              		.loc 1 768 17 is_stmt 0 view .LVU305
 1059 0098 0024     		movs	r4, #0
 768:Core/Src/main.c ****       HAL_ADC_Start(&hadc1);
 1060              		.loc 1 768 5 view .LVU306
 1061 009a C7E7     		b	.L50
 1062              	.L56:
 1063              		.align	2
 1064              	.L55:
 1065 009c 00000000 		.word	.LANCHOR6
 1066 00a0 00000000 		.word	.LANCHOR7
 1067 00a4 00000000 		.word	.LANCHOR8
 1068 00a8 00000240 		.word	1073872896
 1069 00ac 00000000 		.word	.LANCHOR2
 1070 00b0 00000000 		.word	.LANCHOR9
 1071              	.LBE9:
 1072              		.cfi_endproc
 1073              	.LFE259:
 1075              		.section	.text.MAP,"ax",%progbits
 1076              		.align	1
 1077              		.global	MAP
 1078              		.syntax unified
 1079              		.thumb
 1080              		.thumb_func
 1081              		.fpu fpv4-sp-d16
 1083              	MAP:
 1084              	.LVL63:
 1085              	.LFB256:
 701:Core/Src/main.c ****     return ((((au32_IN - au32_INmin)*(au32_OUTmax - au32_OUTmin))/(au32_INmax - au32_INmin)) + au32
 1086              		.loc 1 701 1 is_stmt 1 view -0
ARM GAS  /tmp/ccgGExpA.s 			page 40


 1087              		.cfi_startproc
 1088              		@ args = 4, pretend = 0, frame = 0
 1089              		@ frame_needed = 0, uses_anonymous_args = 0
 1090              		@ link register save eliminated.
 702:Core/Src/main.c **** }
 1091              		.loc 1 702 5 view .LVU308
 702:Core/Src/main.c **** }
 1092              		.loc 1 702 24 is_stmt 0 view .LVU309
 1093 0000 A0EB010C 		sub	ip, r0, r1
 702:Core/Src/main.c **** }
 1094              		.loc 1 702 51 view .LVU310
 1095 0004 0098     		ldr	r0, [sp]
 1096              	.LVL64:
 702:Core/Src/main.c **** }
 1097              		.loc 1 702 51 view .LVU311
 1098 0006 C01A     		subs	r0, r0, r3
 702:Core/Src/main.c **** }
 1099              		.loc 1 702 37 view .LVU312
 1100 0008 00FB0CFC 		mul	ip, r0, ip
 702:Core/Src/main.c **** }
 1101              		.loc 1 702 79 view .LVU313
 1102 000c 511A     		subs	r1, r2, r1
 1103              	.LVL65:
 702:Core/Src/main.c **** }
 1104              		.loc 1 702 66 view .LVU314
 1105 000e BCFBF1FC 		udiv	ip, ip, r1
 703:Core/Src/main.c **** 
 1106              		.loc 1 703 1 view .LVU315
 1107 0012 0CEB0300 		add	r0, ip, r3
 1108 0016 7047     		bx	lr
 1109              		.cfi_endproc
 1110              	.LFE256:
 1112              		.section	.text.MoveServo,"ax",%progbits
 1113              		.align	1
 1114              		.global	MoveServo
 1115              		.syntax unified
 1116              		.thumb
 1117              		.thumb_func
 1118              		.fpu fpv4-sp-d16
 1120              	MoveServo:
 1121              	.LVL66:
 1122              	.LFB255:
 675:Core/Src/main.c ****   // MAP each of the angles
 1123              		.loc 1 675 75 is_stmt 1 view -0
 1124              		.cfi_startproc
 1125              		@ args = 0, pretend = 0, frame = 0
 1126              		@ frame_needed = 0, uses_anonymous_args = 0
 675:Core/Src/main.c ****   // MAP each of the angles
 1127              		.loc 1 675 75 is_stmt 0 view .LVU317
 1128 0000 30B5     		push	{r4, r5, lr}
 1129              		.cfi_def_cfa_offset 12
 1130              		.cfi_offset 4, -12
 1131              		.cfi_offset 5, -8
 1132              		.cfi_offset 14, -4
 1133 0002 83B0     		sub	sp, sp, #12
 1134              		.cfi_def_cfa_offset 24
 1135 0004 0446     		mov	r4, r0
ARM GAS  /tmp/ccgGExpA.s 			page 41


 1136 0006 0D46     		mov	r5, r1
 678:Core/Src/main.c ****   // Base
 1137              		.loc 1 678 3 is_stmt 1 view .LVU318
 680:Core/Src/main.c ****   PCA9685_SetServoAngle(MegaBot->Base.ServoNum, MappedServoAngle);
 1138              		.loc 1 680 3 view .LVU319
 680:Core/Src/main.c ****   PCA9685_SetServoAngle(MegaBot->Base.ServoNum, MappedServoAngle);
 1139              		.loc 1 680 22 is_stmt 0 view .LVU320
 1140 0008 0868     		ldr	r0, [r1]
 1141              	.LVL67:
 680:Core/Src/main.c ****   PCA9685_SetServoAngle(MegaBot->Base.ServoNum, MappedServoAngle);
 1142              		.loc 1 680 22 view .LVU321
 1143 000a 4968     		ldr	r1, [r1, #4]
 1144              	.LVL68:
 680:Core/Src/main.c ****   PCA9685_SetServoAngle(MegaBot->Base.ServoNum, MappedServoAngle);
 1145              		.loc 1 680 22 view .LVU322
 1146 000c AA68     		ldr	r2, [r5, #8]
 680:Core/Src/main.c ****   PCA9685_SetServoAngle(MegaBot->Base.ServoNum, MappedServoAngle);
 1147              		.loc 1 680 128 view .LVU323
 1148 000e A388     		ldrh	r3, [r4, #4]
 680:Core/Src/main.c ****   PCA9685_SetServoAngle(MegaBot->Base.ServoNum, MappedServoAngle);
 1149              		.loc 1 680 22 view .LVU324
 1150 0010 0093     		str	r3, [sp]
 1151 0012 6388     		ldrh	r3, [r4, #2]
 1152 0014 FFF7FEFF 		bl	MAP
 1153              	.LVL69:
 1154 0018 00EE100A 		vmov	s0, r0	@ int
 1155              	.LVL70:
 681:Core/Src/main.c ****   // Shoulder
 1156              		.loc 1 681 3 is_stmt 1 view .LVU325
 1157 001c B8EE400A 		vcvt.f32.u32	s0, s0
 1158              	.LVL71:
 681:Core/Src/main.c ****   // Shoulder
 1159              		.loc 1 681 3 is_stmt 0 view .LVU326
 1160 0020 2078     		ldrb	r0, [r4]	@ zero_extendqisi2
 1161 0022 FFF7FEFF 		bl	PCA9685_SetServoAngle
 1162              	.LVL72:
 683:Core/Src/main.c ****   PCA9685_SetServoAngle(MegaBot->Shoulder.ServoNum, MappedServoAngle);
 1163              		.loc 1 683 3 is_stmt 1 view .LVU327
 683:Core/Src/main.c ****   PCA9685_SetServoAngle(MegaBot->Shoulder.ServoNum, MappedServoAngle);
 1164              		.loc 1 683 22 is_stmt 0 view .LVU328
 1165 0026 E868     		ldr	r0, [r5, #12]
 1166 0028 2969     		ldr	r1, [r5, #16]
 1167 002a 6A69     		ldr	r2, [r5, #20]
 683:Core/Src/main.c ****   PCA9685_SetServoAngle(MegaBot->Shoulder.ServoNum, MappedServoAngle);
 1168              		.loc 1 683 148 view .LVU329
 1169 002c A389     		ldrh	r3, [r4, #12]
 683:Core/Src/main.c ****   PCA9685_SetServoAngle(MegaBot->Shoulder.ServoNum, MappedServoAngle);
 1170              		.loc 1 683 22 view .LVU330
 1171 002e 0093     		str	r3, [sp]
 1172 0030 6389     		ldrh	r3, [r4, #10]
 1173 0032 FFF7FEFF 		bl	MAP
 1174              	.LVL73:
 1175 0036 00EE100A 		vmov	s0, r0	@ int
 1176              	.LVL74:
 684:Core/Src/main.c ****   // Elbow
 1177              		.loc 1 684 3 is_stmt 1 view .LVU331
 1178 003a B8EE400A 		vcvt.f32.u32	s0, s0
ARM GAS  /tmp/ccgGExpA.s 			page 42


 1179              	.LVL75:
 684:Core/Src/main.c ****   // Elbow
 1180              		.loc 1 684 3 is_stmt 0 view .LVU332
 1181 003e 207A     		ldrb	r0, [r4, #8]	@ zero_extendqisi2
 1182 0040 FFF7FEFF 		bl	PCA9685_SetServoAngle
 1183              	.LVL76:
 686:Core/Src/main.c ****   PCA9685_SetServoAngle(MegaBot->Elbow.ServoNum, MappedServoAngle);
 1184              		.loc 1 686 3 is_stmt 1 view .LVU333
 686:Core/Src/main.c ****   PCA9685_SetServoAngle(MegaBot->Elbow.ServoNum, MappedServoAngle);
 1185              		.loc 1 686 22 is_stmt 0 view .LVU334
 1186 0044 A869     		ldr	r0, [r5, #24]
 1187 0046 E969     		ldr	r1, [r5, #28]
 1188 0048 2A6A     		ldr	r2, [r5, #32]
 686:Core/Src/main.c ****   PCA9685_SetServoAngle(MegaBot->Elbow.ServoNum, MappedServoAngle);
 1189              		.loc 1 686 133 view .LVU335
 1190 004a A38A     		ldrh	r3, [r4, #20]
 686:Core/Src/main.c ****   PCA9685_SetServoAngle(MegaBot->Elbow.ServoNum, MappedServoAngle);
 1191              		.loc 1 686 22 view .LVU336
 1192 004c 0093     		str	r3, [sp]
 1193 004e 638A     		ldrh	r3, [r4, #18]
 1194 0050 FFF7FEFF 		bl	MAP
 1195              	.LVL77:
 1196 0054 00EE100A 		vmov	s0, r0	@ int
 1197              	.LVL78:
 687:Core/Src/main.c ****   // Wrist
 1198              		.loc 1 687 3 is_stmt 1 view .LVU337
 1199 0058 B8EE400A 		vcvt.f32.u32	s0, s0
 1200              	.LVL79:
 687:Core/Src/main.c ****   // Wrist
 1201              		.loc 1 687 3 is_stmt 0 view .LVU338
 1202 005c 207C     		ldrb	r0, [r4, #16]	@ zero_extendqisi2
 1203 005e FFF7FEFF 		bl	PCA9685_SetServoAngle
 1204              	.LVL80:
 689:Core/Src/main.c ****   PCA9685_SetServoAngle(MegaBot->Wrist.ServoNum, MappedServoAngle);
 1205              		.loc 1 689 3 is_stmt 1 view .LVU339
 689:Core/Src/main.c ****   PCA9685_SetServoAngle(MegaBot->Wrist.ServoNum, MappedServoAngle);
 1206              		.loc 1 689 22 is_stmt 0 view .LVU340
 1207 0062 686A     		ldr	r0, [r5, #36]
 1208 0064 A96A     		ldr	r1, [r5, #40]
 1209 0066 EA6A     		ldr	r2, [r5, #44]
 689:Core/Src/main.c ****   PCA9685_SetServoAngle(MegaBot->Wrist.ServoNum, MappedServoAngle);
 1210              		.loc 1 689 133 view .LVU341
 1211 0068 A38B     		ldrh	r3, [r4, #28]
 689:Core/Src/main.c ****   PCA9685_SetServoAngle(MegaBot->Wrist.ServoNum, MappedServoAngle);
 1212              		.loc 1 689 22 view .LVU342
 1213 006a 0093     		str	r3, [sp]
 1214 006c 638B     		ldrh	r3, [r4, #26]
 1215 006e FFF7FEFF 		bl	MAP
 1216              	.LVL81:
 1217 0072 00EE100A 		vmov	s0, r0	@ int
 1218              	.LVL82:
 690:Core/Src/main.c ****   // Gripper
 1219              		.loc 1 690 3 is_stmt 1 view .LVU343
 1220 0076 B8EE400A 		vcvt.f32.u32	s0, s0
 1221              	.LVL83:
 690:Core/Src/main.c ****   // Gripper
 1222              		.loc 1 690 3 is_stmt 0 view .LVU344
ARM GAS  /tmp/ccgGExpA.s 			page 43


 1223 007a 207E     		ldrb	r0, [r4, #24]	@ zero_extendqisi2
 1224 007c FFF7FEFF 		bl	PCA9685_SetServoAngle
 1225              	.LVL84:
 692:Core/Src/main.c ****     PCA9685_SetServoAngle(MegaBot->Gripper.ServoNum, MegaBot->Gripper.ServoMin);
 1226              		.loc 1 692 3 is_stmt 1 view .LVU345
 692:Core/Src/main.c ****     PCA9685_SetServoAngle(MegaBot->Gripper.ServoNum, MegaBot->Gripper.ServoMin);
 1227              		.loc 1 692 13 is_stmt 0 view .LVU346
 1228 0080 95F83030 		ldrb	r3, [r5, #48]	@ zero_extendqisi2
 692:Core/Src/main.c ****     PCA9685_SetServoAngle(MegaBot->Gripper.ServoNum, MegaBot->Gripper.ServoMin);
 1229              		.loc 1 692 5 view .LVU347
 1230 0084 53B1     		cbz	r3, .L59
 693:Core/Src/main.c ****   }else{
 1231              		.loc 1 693 5 is_stmt 1 view .LVU348
 693:Core/Src/main.c ****   }else{
 1232              		.loc 1 693 70 is_stmt 0 view .LVU349
 1233 0086 638C     		ldrh	r3, [r4, #34]
 1234 0088 00EE103A 		vmov	s0, r3	@ int
 693:Core/Src/main.c ****   }else{
 1235              		.loc 1 693 5 view .LVU350
 1236 008c B8EE400A 		vcvt.f32.u32	s0, s0
 1237 0090 94F82000 		ldrb	r0, [r4, #32]	@ zero_extendqisi2
 1238 0094 FFF7FEFF 		bl	PCA9685_SetServoAngle
 1239              	.LVL85:
 1240              	.L58:
 697:Core/Src/main.c **** 
 1241              		.loc 1 697 1 view .LVU351
 1242 0098 03B0     		add	sp, sp, #12
 1243              		.cfi_remember_state
 1244              		.cfi_def_cfa_offset 12
 1245              		@ sp needed
 1246 009a 30BD     		pop	{r4, r5, pc}
 1247              	.LVL86:
 1248              	.L59:
 1249              		.cfi_restore_state
 695:Core/Src/main.c ****   }
 1250              		.loc 1 695 5 is_stmt 1 view .LVU352
 695:Core/Src/main.c ****   }
 1251              		.loc 1 695 70 is_stmt 0 view .LVU353
 1252 009c A38C     		ldrh	r3, [r4, #36]
 1253 009e 00EE103A 		vmov	s0, r3	@ int
 695:Core/Src/main.c ****   }
 1254              		.loc 1 695 5 view .LVU354
 1255 00a2 B8EE400A 		vcvt.f32.u32	s0, s0
 1256 00a6 94F82000 		ldrb	r0, [r4, #32]	@ zero_extendqisi2
 1257 00aa FFF7FEFF 		bl	PCA9685_SetServoAngle
 1258              	.LVL87:
 697:Core/Src/main.c **** 
 1259              		.loc 1 697 1 view .LVU355
 1260 00ae F3E7     		b	.L58
 1261              		.cfi_endproc
 1262              	.LFE255:
 1264              		.section	.text.MotorControlTaskEntry,"ax",%progbits
 1265              		.align	1
 1266              		.global	MotorControlTaskEntry
 1267              		.syntax unified
 1268              		.thumb
 1269              		.thumb_func
ARM GAS  /tmp/ccgGExpA.s 			page 44


 1270              		.fpu fpv4-sp-d16
 1272              	MotorControlTaskEntry:
 1273              	.LVL88:
 1274              	.LFB262:
 877:Core/Src/main.c ****   /* USER CODE BEGIN MotorControlTaskEntry */
 1275              		.loc 1 877 1 is_stmt 1 view -0
 1276              		.cfi_startproc
 1277              		@ Volatile: function does not return.
 1278              		@ args = 0, pretend = 0, frame = 40
 1279              		@ frame_needed = 0, uses_anonymous_args = 0
 877:Core/Src/main.c ****   /* USER CODE BEGIN MotorControlTaskEntry */
 1280              		.loc 1 877 1 is_stmt 0 view .LVU357
 1281 0000 00B5     		push	{lr}
 1282              		.cfi_def_cfa_offset 4
 1283              		.cfi_offset 14, -4
 1284 0002 8BB0     		sub	sp, sp, #44
 1285              		.cfi_def_cfa_offset 48
 880:Core/Src/main.c ****   MegaBotInit(&MegaBot);
 1286              		.loc 1 880 3 is_stmt 1 view .LVU358
 881:Core/Src/main.c ****   ServoDriverInit(&MegaBot);
 1287              		.loc 1 881 3 view .LVU359
 1288 0004 6846     		mov	r0, sp
 1289              	.LVL89:
 881:Core/Src/main.c ****   ServoDriverInit(&MegaBot);
 1290              		.loc 1 881 3 is_stmt 0 view .LVU360
 1291 0006 FFF7FEFF 		bl	MegaBotInit
 1292              	.LVL90:
 882:Core/Src/main.c **** 
 1293              		.loc 1 882 3 is_stmt 1 view .LVU361
 1294 000a 6846     		mov	r0, sp
 1295 000c FFF7FEFF 		bl	ServoDriverInit
 1296              	.LVL91:
 1297 0010 06E0     		b	.L64
 1298              	.L66:
 890:Core/Src/main.c ****     }
 1299              		.loc 1 890 7 view .LVU362
 1300 0012 0849     		ldr	r1, .L67
 1301 0014 6846     		mov	r0, sp
 1302 0016 FFF7FEFF 		bl	MoveServo
 1303              	.LVL92:
 1304              	.L63:
 895:Core/Src/main.c ****   }
 1305              		.loc 1 895 5 view .LVU363
 1306 001a 0120     		movs	r0, #1
 1307 001c FFF7FEFF 		bl	osDelay
 1308              	.LVL93:
 886:Core/Src/main.c ****   {
 1309              		.loc 1 886 8 view .LVU364
 1310              	.L64:
 886:Core/Src/main.c ****   {
 1311              		.loc 1 886 3 view .LVU365
 889:Core/Src/main.c ****       MoveServo(&MegaBot, &MotorControl_Qdata_Buf);
 1312              		.loc 1 889 5 view .LVU366
 889:Core/Src/main.c ****       MoveServo(&MegaBot, &MotorControl_Qdata_Buf);
 1313              		.loc 1 889 8 is_stmt 0 view .LVU367
 1314 0020 4FF0FF32 		mov	r2, #-1
 1315 0024 0349     		ldr	r1, .L67
ARM GAS  /tmp/ccgGExpA.s 			page 45


 1316 0026 044B     		ldr	r3, .L67+4
 1317 0028 1868     		ldr	r0, [r3]
 1318 002a FFF7FEFF 		bl	xQueueReceive
 1319              	.LVL94:
 889:Core/Src/main.c ****       MoveServo(&MegaBot, &MotorControl_Qdata_Buf);
 1320              		.loc 1 889 7 view .LVU368
 1321 002e 0128     		cmp	r0, #1
 1322 0030 EFD0     		beq	.L66
 1323 0032 F2E7     		b	.L63
 1324              	.L68:
 1325              		.align	2
 1326              	.L67:
 1327 0034 00000000 		.word	.LANCHOR10
 1328 0038 00000000 		.word	.LANCHOR4
 1329              		.cfi_endproc
 1330              	.LFE262:
 1332              		.section	.text.HAL_TIM_PeriodElapsedCallback,"ax",%progbits
 1333              		.align	1
 1334              		.global	HAL_TIM_PeriodElapsedCallback
 1335              		.syntax unified
 1336              		.thumb
 1337              		.thumb_func
 1338              		.fpu fpv4-sp-d16
 1340              	HAL_TIM_PeriodElapsedCallback:
 1341              	.LVL95:
 1342              	.LFB264:
 914:Core/Src/main.c ****   }
 915:Core/Src/main.c ****   /* USER CODE END LCDPrintTaskEntry */
 916:Core/Src/main.c **** }
 917:Core/Src/main.c **** 
 918:Core/Src/main.c **** /**
 919:Core/Src/main.c ****   * @brief  Period elapsed callback in non blocking mode
 920:Core/Src/main.c ****   * @note   This function is called  when TIM6 interrupt took place, inside
 921:Core/Src/main.c ****   * HAL_TIM_IRQHandler(). It makes a direct call to HAL_IncTick() to increment
 922:Core/Src/main.c ****   * a global variable "uwTick" used as application time base.
 923:Core/Src/main.c ****   * @param  htim : TIM handle
 924:Core/Src/main.c ****   * @retval None
 925:Core/Src/main.c ****   */
 926:Core/Src/main.c **** void HAL_TIM_PeriodElapsedCallback(TIM_HandleTypeDef *htim)
 927:Core/Src/main.c **** {
 1343              		.loc 1 927 1 is_stmt 1 view -0
 1344              		.cfi_startproc
 1345              		@ args = 0, pretend = 0, frame = 0
 1346              		@ frame_needed = 0, uses_anonymous_args = 0
 1347              		.loc 1 927 1 is_stmt 0 view .LVU370
 1348 0000 08B5     		push	{r3, lr}
 1349              		.cfi_def_cfa_offset 8
 1350              		.cfi_offset 3, -8
 1351              		.cfi_offset 14, -4
 928:Core/Src/main.c ****   /* USER CODE BEGIN Callback 0 */
 929:Core/Src/main.c **** 
 930:Core/Src/main.c ****   /* USER CODE END Callback 0 */
 931:Core/Src/main.c ****   if (htim->Instance == TIM6) {
 1352              		.loc 1 931 3 is_stmt 1 view .LVU371
 1353              		.loc 1 931 11 is_stmt 0 view .LVU372
 1354 0002 0268     		ldr	r2, [r0]
 1355              		.loc 1 931 6 view .LVU373
ARM GAS  /tmp/ccgGExpA.s 			page 46


 1356 0004 034B     		ldr	r3, .L73
 1357 0006 9A42     		cmp	r2, r3
 1358 0008 00D0     		beq	.L72
 1359              	.LVL96:
 1360              	.L69:
 932:Core/Src/main.c ****     HAL_IncTick();
 933:Core/Src/main.c ****   }
 934:Core/Src/main.c ****   /* USER CODE BEGIN Callback 1 */
 935:Core/Src/main.c **** 
 936:Core/Src/main.c ****   /* USER CODE END Callback 1 */
 937:Core/Src/main.c **** }
 1361              		.loc 1 937 1 view .LVU374
 1362 000a 08BD     		pop	{r3, pc}
 1363              	.LVL97:
 1364              	.L72:
 932:Core/Src/main.c ****     HAL_IncTick();
 1365              		.loc 1 932 5 is_stmt 1 view .LVU375
 1366 000c FFF7FEFF 		bl	HAL_IncTick
 1367              	.LVL98:
 1368              		.loc 1 937 1 is_stmt 0 view .LVU376
 1369 0010 FBE7     		b	.L69
 1370              	.L74:
 1371 0012 00BF     		.align	2
 1372              	.L73:
 1373 0014 00100040 		.word	1073745920
 1374              		.cfi_endproc
 1375              	.LFE264:
 1377              		.section	.text.Error_Handler,"ax",%progbits
 1378              		.align	1
 1379              		.global	Error_Handler
 1380              		.syntax unified
 1381              		.thumb
 1382              		.thumb_func
 1383              		.fpu fpv4-sp-d16
 1385              	Error_Handler:
 1386              	.LFB265:
 938:Core/Src/main.c **** 
 939:Core/Src/main.c **** /**
 940:Core/Src/main.c ****   * @brief  This function is executed in case of error occurrence.
 941:Core/Src/main.c ****   * @retval None
 942:Core/Src/main.c ****   */
 943:Core/Src/main.c **** void Error_Handler(void)
 944:Core/Src/main.c **** {
 1387              		.loc 1 944 1 is_stmt 1 view -0
 1388              		.cfi_startproc
 1389              		@ Volatile: function does not return.
 1390              		@ args = 0, pretend = 0, frame = 0
 1391              		@ frame_needed = 0, uses_anonymous_args = 0
 1392              		@ link register save eliminated.
 945:Core/Src/main.c ****   /* USER CODE BEGIN Error_Handler_Debug */
 946:Core/Src/main.c ****   /* User can add his own implementation to report the HAL error return state */
 947:Core/Src/main.c ****   __disable_irq();
 1393              		.loc 1 947 3 view .LVU378
 1394              	.LBB10:
 1395              	.LBI10:
 1396              		.file 2 "Drivers/CMSIS/Include/cmsis_gcc.h"
   1:Drivers/CMSIS/Include/cmsis_gcc.h **** /**************************************************************************//**
ARM GAS  /tmp/ccgGExpA.s 			page 47


   2:Drivers/CMSIS/Include/cmsis_gcc.h ****  * @file     cmsis_gcc.h
   3:Drivers/CMSIS/Include/cmsis_gcc.h ****  * @brief    CMSIS compiler GCC header file
   4:Drivers/CMSIS/Include/cmsis_gcc.h ****  * @version  V5.4.1
   5:Drivers/CMSIS/Include/cmsis_gcc.h ****  * @date     27. May 2021
   6:Drivers/CMSIS/Include/cmsis_gcc.h ****  ******************************************************************************/
   7:Drivers/CMSIS/Include/cmsis_gcc.h **** /*
   8:Drivers/CMSIS/Include/cmsis_gcc.h ****  * Copyright (c) 2009-2021 Arm Limited. All rights reserved.
   9:Drivers/CMSIS/Include/cmsis_gcc.h ****  *
  10:Drivers/CMSIS/Include/cmsis_gcc.h ****  * SPDX-License-Identifier: Apache-2.0
  11:Drivers/CMSIS/Include/cmsis_gcc.h ****  *
  12:Drivers/CMSIS/Include/cmsis_gcc.h ****  * Licensed under the Apache License, Version 2.0 (the License); you may
  13:Drivers/CMSIS/Include/cmsis_gcc.h ****  * not use this file except in compliance with the License.
  14:Drivers/CMSIS/Include/cmsis_gcc.h ****  * You may obtain a copy of the License at
  15:Drivers/CMSIS/Include/cmsis_gcc.h ****  *
  16:Drivers/CMSIS/Include/cmsis_gcc.h ****  * www.apache.org/licenses/LICENSE-2.0
  17:Drivers/CMSIS/Include/cmsis_gcc.h ****  *
  18:Drivers/CMSIS/Include/cmsis_gcc.h ****  * Unless required by applicable law or agreed to in writing, software
  19:Drivers/CMSIS/Include/cmsis_gcc.h ****  * distributed under the License is distributed on an AS IS BASIS, WITHOUT
  20:Drivers/CMSIS/Include/cmsis_gcc.h ****  * WARRANTIES OR CONDITIONS OF ANY KIND, either express or implied.
  21:Drivers/CMSIS/Include/cmsis_gcc.h ****  * See the License for the specific language governing permissions and
  22:Drivers/CMSIS/Include/cmsis_gcc.h ****  * limitations under the License.
  23:Drivers/CMSIS/Include/cmsis_gcc.h ****  */
  24:Drivers/CMSIS/Include/cmsis_gcc.h **** 
  25:Drivers/CMSIS/Include/cmsis_gcc.h **** #ifndef __CMSIS_GCC_H
  26:Drivers/CMSIS/Include/cmsis_gcc.h **** #define __CMSIS_GCC_H
  27:Drivers/CMSIS/Include/cmsis_gcc.h **** 
  28:Drivers/CMSIS/Include/cmsis_gcc.h **** /* ignore some GCC warnings */
  29:Drivers/CMSIS/Include/cmsis_gcc.h **** #pragma GCC diagnostic push
  30:Drivers/CMSIS/Include/cmsis_gcc.h **** #pragma GCC diagnostic ignored "-Wsign-conversion"
  31:Drivers/CMSIS/Include/cmsis_gcc.h **** #pragma GCC diagnostic ignored "-Wconversion"
  32:Drivers/CMSIS/Include/cmsis_gcc.h **** #pragma GCC diagnostic ignored "-Wunused-parameter"
  33:Drivers/CMSIS/Include/cmsis_gcc.h **** 
  34:Drivers/CMSIS/Include/cmsis_gcc.h **** /* Fallback for __has_builtin */
  35:Drivers/CMSIS/Include/cmsis_gcc.h **** #ifndef __has_builtin
  36:Drivers/CMSIS/Include/cmsis_gcc.h ****   #define __has_builtin(x) (0)
  37:Drivers/CMSIS/Include/cmsis_gcc.h **** #endif
  38:Drivers/CMSIS/Include/cmsis_gcc.h **** 
  39:Drivers/CMSIS/Include/cmsis_gcc.h **** /* CMSIS compiler specific defines */
  40:Drivers/CMSIS/Include/cmsis_gcc.h **** #ifndef   __ASM
  41:Drivers/CMSIS/Include/cmsis_gcc.h ****   #define __ASM                                  __asm
  42:Drivers/CMSIS/Include/cmsis_gcc.h **** #endif
  43:Drivers/CMSIS/Include/cmsis_gcc.h **** #ifndef   __INLINE
  44:Drivers/CMSIS/Include/cmsis_gcc.h ****   #define __INLINE                               inline
  45:Drivers/CMSIS/Include/cmsis_gcc.h **** #endif
  46:Drivers/CMSIS/Include/cmsis_gcc.h **** #ifndef   __STATIC_INLINE
  47:Drivers/CMSIS/Include/cmsis_gcc.h ****   #define __STATIC_INLINE                        static inline
  48:Drivers/CMSIS/Include/cmsis_gcc.h **** #endif
  49:Drivers/CMSIS/Include/cmsis_gcc.h **** #ifndef   __STATIC_FORCEINLINE
  50:Drivers/CMSIS/Include/cmsis_gcc.h ****   #define __STATIC_FORCEINLINE                   __attribute__((always_inline)) static inline
  51:Drivers/CMSIS/Include/cmsis_gcc.h **** #endif
  52:Drivers/CMSIS/Include/cmsis_gcc.h **** #ifndef   __NO_RETURN
  53:Drivers/CMSIS/Include/cmsis_gcc.h ****   #define __NO_RETURN                            __attribute__((__noreturn__))
  54:Drivers/CMSIS/Include/cmsis_gcc.h **** #endif
  55:Drivers/CMSIS/Include/cmsis_gcc.h **** #ifndef   __USED
  56:Drivers/CMSIS/Include/cmsis_gcc.h ****   #define __USED                                 __attribute__((used))
  57:Drivers/CMSIS/Include/cmsis_gcc.h **** #endif
  58:Drivers/CMSIS/Include/cmsis_gcc.h **** #ifndef   __WEAK
ARM GAS  /tmp/ccgGExpA.s 			page 48


  59:Drivers/CMSIS/Include/cmsis_gcc.h ****   #define __WEAK                                 __attribute__((weak))
  60:Drivers/CMSIS/Include/cmsis_gcc.h **** #endif
  61:Drivers/CMSIS/Include/cmsis_gcc.h **** #ifndef   __PACKED
  62:Drivers/CMSIS/Include/cmsis_gcc.h ****   #define __PACKED                               __attribute__((packed, aligned(1)))
  63:Drivers/CMSIS/Include/cmsis_gcc.h **** #endif
  64:Drivers/CMSIS/Include/cmsis_gcc.h **** #ifndef   __PACKED_STRUCT
  65:Drivers/CMSIS/Include/cmsis_gcc.h ****   #define __PACKED_STRUCT                        struct __attribute__((packed, aligned(1)))
  66:Drivers/CMSIS/Include/cmsis_gcc.h **** #endif
  67:Drivers/CMSIS/Include/cmsis_gcc.h **** #ifndef   __PACKED_UNION
  68:Drivers/CMSIS/Include/cmsis_gcc.h ****   #define __PACKED_UNION                         union __attribute__((packed, aligned(1)))
  69:Drivers/CMSIS/Include/cmsis_gcc.h **** #endif
  70:Drivers/CMSIS/Include/cmsis_gcc.h **** #ifndef   __UNALIGNED_UINT32        /* deprecated */
  71:Drivers/CMSIS/Include/cmsis_gcc.h ****   #pragma GCC diagnostic push
  72:Drivers/CMSIS/Include/cmsis_gcc.h ****   #pragma GCC diagnostic ignored "-Wpacked"
  73:Drivers/CMSIS/Include/cmsis_gcc.h ****   #pragma GCC diagnostic ignored "-Wattributes"
  74:Drivers/CMSIS/Include/cmsis_gcc.h ****   struct __attribute__((packed)) T_UINT32 { uint32_t v; };
  75:Drivers/CMSIS/Include/cmsis_gcc.h ****   #pragma GCC diagnostic pop
  76:Drivers/CMSIS/Include/cmsis_gcc.h ****   #define __UNALIGNED_UINT32(x)                  (((struct T_UINT32 *)(x))->v)
  77:Drivers/CMSIS/Include/cmsis_gcc.h **** #endif
  78:Drivers/CMSIS/Include/cmsis_gcc.h **** #ifndef   __UNALIGNED_UINT16_WRITE
  79:Drivers/CMSIS/Include/cmsis_gcc.h ****   #pragma GCC diagnostic push
  80:Drivers/CMSIS/Include/cmsis_gcc.h ****   #pragma GCC diagnostic ignored "-Wpacked"
  81:Drivers/CMSIS/Include/cmsis_gcc.h ****   #pragma GCC diagnostic ignored "-Wattributes"
  82:Drivers/CMSIS/Include/cmsis_gcc.h ****   __PACKED_STRUCT T_UINT16_WRITE { uint16_t v; };
  83:Drivers/CMSIS/Include/cmsis_gcc.h ****   #pragma GCC diagnostic pop
  84:Drivers/CMSIS/Include/cmsis_gcc.h ****   #define __UNALIGNED_UINT16_WRITE(addr, val)    (void)((((struct T_UINT16_WRITE *)(void *)(addr))-
  85:Drivers/CMSIS/Include/cmsis_gcc.h **** #endif
  86:Drivers/CMSIS/Include/cmsis_gcc.h **** #ifndef   __UNALIGNED_UINT16_READ
  87:Drivers/CMSIS/Include/cmsis_gcc.h ****   #pragma GCC diagnostic push
  88:Drivers/CMSIS/Include/cmsis_gcc.h ****   #pragma GCC diagnostic ignored "-Wpacked"
  89:Drivers/CMSIS/Include/cmsis_gcc.h ****   #pragma GCC diagnostic ignored "-Wattributes"
  90:Drivers/CMSIS/Include/cmsis_gcc.h ****   __PACKED_STRUCT T_UINT16_READ { uint16_t v; };
  91:Drivers/CMSIS/Include/cmsis_gcc.h ****   #pragma GCC diagnostic pop
  92:Drivers/CMSIS/Include/cmsis_gcc.h ****   #define __UNALIGNED_UINT16_READ(addr)          (((const struct T_UINT16_READ *)(const void *)(add
  93:Drivers/CMSIS/Include/cmsis_gcc.h **** #endif
  94:Drivers/CMSIS/Include/cmsis_gcc.h **** #ifndef   __UNALIGNED_UINT32_WRITE
  95:Drivers/CMSIS/Include/cmsis_gcc.h ****   #pragma GCC diagnostic push
  96:Drivers/CMSIS/Include/cmsis_gcc.h ****   #pragma GCC diagnostic ignored "-Wpacked"
  97:Drivers/CMSIS/Include/cmsis_gcc.h ****   #pragma GCC diagnostic ignored "-Wattributes"
  98:Drivers/CMSIS/Include/cmsis_gcc.h ****   __PACKED_STRUCT T_UINT32_WRITE { uint32_t v; };
  99:Drivers/CMSIS/Include/cmsis_gcc.h ****   #pragma GCC diagnostic pop
 100:Drivers/CMSIS/Include/cmsis_gcc.h ****   #define __UNALIGNED_UINT32_WRITE(addr, val)    (void)((((struct T_UINT32_WRITE *)(void *)(addr))-
 101:Drivers/CMSIS/Include/cmsis_gcc.h **** #endif
 102:Drivers/CMSIS/Include/cmsis_gcc.h **** #ifndef   __UNALIGNED_UINT32_READ
 103:Drivers/CMSIS/Include/cmsis_gcc.h ****   #pragma GCC diagnostic push
 104:Drivers/CMSIS/Include/cmsis_gcc.h ****   #pragma GCC diagnostic ignored "-Wpacked"
 105:Drivers/CMSIS/Include/cmsis_gcc.h ****   #pragma GCC diagnostic ignored "-Wattributes"
 106:Drivers/CMSIS/Include/cmsis_gcc.h ****   __PACKED_STRUCT T_UINT32_READ { uint32_t v; };
 107:Drivers/CMSIS/Include/cmsis_gcc.h ****   #pragma GCC diagnostic pop
 108:Drivers/CMSIS/Include/cmsis_gcc.h ****   #define __UNALIGNED_UINT32_READ(addr)          (((const struct T_UINT32_READ *)(const void *)(add
 109:Drivers/CMSIS/Include/cmsis_gcc.h **** #endif
 110:Drivers/CMSIS/Include/cmsis_gcc.h **** #ifndef   __ALIGNED
 111:Drivers/CMSIS/Include/cmsis_gcc.h ****   #define __ALIGNED(x)                           __attribute__((aligned(x)))
 112:Drivers/CMSIS/Include/cmsis_gcc.h **** #endif
 113:Drivers/CMSIS/Include/cmsis_gcc.h **** #ifndef   __RESTRICT
 114:Drivers/CMSIS/Include/cmsis_gcc.h ****   #define __RESTRICT                             __restrict
 115:Drivers/CMSIS/Include/cmsis_gcc.h **** #endif
ARM GAS  /tmp/ccgGExpA.s 			page 49


 116:Drivers/CMSIS/Include/cmsis_gcc.h **** #ifndef   __COMPILER_BARRIER
 117:Drivers/CMSIS/Include/cmsis_gcc.h ****   #define __COMPILER_BARRIER()                   __ASM volatile("":::"memory")
 118:Drivers/CMSIS/Include/cmsis_gcc.h **** #endif
 119:Drivers/CMSIS/Include/cmsis_gcc.h **** 
 120:Drivers/CMSIS/Include/cmsis_gcc.h **** /* #########################  Startup and Lowlevel Init  ######################## */
 121:Drivers/CMSIS/Include/cmsis_gcc.h **** 
 122:Drivers/CMSIS/Include/cmsis_gcc.h **** #ifndef __PROGRAM_START
 123:Drivers/CMSIS/Include/cmsis_gcc.h **** 
 124:Drivers/CMSIS/Include/cmsis_gcc.h **** /**
 125:Drivers/CMSIS/Include/cmsis_gcc.h ****   \brief   Initializes data and bss sections
 126:Drivers/CMSIS/Include/cmsis_gcc.h ****   \details This default implementations initialized all data and additional bss
 127:Drivers/CMSIS/Include/cmsis_gcc.h ****            sections relying on .copy.table and .zero.table specified properly
 128:Drivers/CMSIS/Include/cmsis_gcc.h ****            in the used linker script.
 129:Drivers/CMSIS/Include/cmsis_gcc.h **** 
 130:Drivers/CMSIS/Include/cmsis_gcc.h ****  */
 131:Drivers/CMSIS/Include/cmsis_gcc.h **** __STATIC_FORCEINLINE __NO_RETURN void __cmsis_start(void)
 132:Drivers/CMSIS/Include/cmsis_gcc.h **** {
 133:Drivers/CMSIS/Include/cmsis_gcc.h ****   extern void _start(void) __NO_RETURN;
 134:Drivers/CMSIS/Include/cmsis_gcc.h **** 
 135:Drivers/CMSIS/Include/cmsis_gcc.h ****   typedef struct {
 136:Drivers/CMSIS/Include/cmsis_gcc.h ****     uint32_t const* src;
 137:Drivers/CMSIS/Include/cmsis_gcc.h ****     uint32_t* dest;
 138:Drivers/CMSIS/Include/cmsis_gcc.h ****     uint32_t  wlen;
 139:Drivers/CMSIS/Include/cmsis_gcc.h ****   } __copy_table_t;
 140:Drivers/CMSIS/Include/cmsis_gcc.h **** 
 141:Drivers/CMSIS/Include/cmsis_gcc.h ****   typedef struct {
 142:Drivers/CMSIS/Include/cmsis_gcc.h ****     uint32_t* dest;
 143:Drivers/CMSIS/Include/cmsis_gcc.h ****     uint32_t  wlen;
 144:Drivers/CMSIS/Include/cmsis_gcc.h ****   } __zero_table_t;
 145:Drivers/CMSIS/Include/cmsis_gcc.h **** 
 146:Drivers/CMSIS/Include/cmsis_gcc.h ****   extern const __copy_table_t __copy_table_start__;
 147:Drivers/CMSIS/Include/cmsis_gcc.h ****   extern const __copy_table_t __copy_table_end__;
 148:Drivers/CMSIS/Include/cmsis_gcc.h ****   extern const __zero_table_t __zero_table_start__;
 149:Drivers/CMSIS/Include/cmsis_gcc.h ****   extern const __zero_table_t __zero_table_end__;
 150:Drivers/CMSIS/Include/cmsis_gcc.h **** 
 151:Drivers/CMSIS/Include/cmsis_gcc.h ****   for (__copy_table_t const* pTable = &__copy_table_start__; pTable < &__copy_table_end__; ++pTable
 152:Drivers/CMSIS/Include/cmsis_gcc.h ****     for(uint32_t i=0u; i<pTable->wlen; ++i) {
 153:Drivers/CMSIS/Include/cmsis_gcc.h ****       pTable->dest[i] = pTable->src[i];
 154:Drivers/CMSIS/Include/cmsis_gcc.h ****     }
 155:Drivers/CMSIS/Include/cmsis_gcc.h ****   }
 156:Drivers/CMSIS/Include/cmsis_gcc.h **** 
 157:Drivers/CMSIS/Include/cmsis_gcc.h ****   for (__zero_table_t const* pTable = &__zero_table_start__; pTable < &__zero_table_end__; ++pTable
 158:Drivers/CMSIS/Include/cmsis_gcc.h ****     for(uint32_t i=0u; i<pTable->wlen; ++i) {
 159:Drivers/CMSIS/Include/cmsis_gcc.h ****       pTable->dest[i] = 0u;
 160:Drivers/CMSIS/Include/cmsis_gcc.h ****     }
 161:Drivers/CMSIS/Include/cmsis_gcc.h ****   }
 162:Drivers/CMSIS/Include/cmsis_gcc.h **** 
 163:Drivers/CMSIS/Include/cmsis_gcc.h ****   _start();
 164:Drivers/CMSIS/Include/cmsis_gcc.h **** }
 165:Drivers/CMSIS/Include/cmsis_gcc.h **** 
 166:Drivers/CMSIS/Include/cmsis_gcc.h **** #define __PROGRAM_START           __cmsis_start
 167:Drivers/CMSIS/Include/cmsis_gcc.h **** #endif
 168:Drivers/CMSIS/Include/cmsis_gcc.h **** 
 169:Drivers/CMSIS/Include/cmsis_gcc.h **** #ifndef __INITIAL_SP
 170:Drivers/CMSIS/Include/cmsis_gcc.h **** #define __INITIAL_SP              __StackTop
 171:Drivers/CMSIS/Include/cmsis_gcc.h **** #endif
 172:Drivers/CMSIS/Include/cmsis_gcc.h **** 
ARM GAS  /tmp/ccgGExpA.s 			page 50


 173:Drivers/CMSIS/Include/cmsis_gcc.h **** #ifndef __STACK_LIMIT
 174:Drivers/CMSIS/Include/cmsis_gcc.h **** #define __STACK_LIMIT             __StackLimit
 175:Drivers/CMSIS/Include/cmsis_gcc.h **** #endif
 176:Drivers/CMSIS/Include/cmsis_gcc.h **** 
 177:Drivers/CMSIS/Include/cmsis_gcc.h **** #ifndef __VECTOR_TABLE
 178:Drivers/CMSIS/Include/cmsis_gcc.h **** #define __VECTOR_TABLE            __Vectors
 179:Drivers/CMSIS/Include/cmsis_gcc.h **** #endif
 180:Drivers/CMSIS/Include/cmsis_gcc.h **** 
 181:Drivers/CMSIS/Include/cmsis_gcc.h **** #ifndef __VECTOR_TABLE_ATTRIBUTE
 182:Drivers/CMSIS/Include/cmsis_gcc.h **** #define __VECTOR_TABLE_ATTRIBUTE  __attribute__((used, section(".vectors")))
 183:Drivers/CMSIS/Include/cmsis_gcc.h **** #endif
 184:Drivers/CMSIS/Include/cmsis_gcc.h **** 
 185:Drivers/CMSIS/Include/cmsis_gcc.h **** #if defined (__ARM_FEATURE_CMSE) && (__ARM_FEATURE_CMSE == 3U)
 186:Drivers/CMSIS/Include/cmsis_gcc.h **** #ifndef __STACK_SEAL
 187:Drivers/CMSIS/Include/cmsis_gcc.h **** #define __STACK_SEAL              __StackSeal
 188:Drivers/CMSIS/Include/cmsis_gcc.h **** #endif
 189:Drivers/CMSIS/Include/cmsis_gcc.h **** 
 190:Drivers/CMSIS/Include/cmsis_gcc.h **** #ifndef __TZ_STACK_SEAL_SIZE
 191:Drivers/CMSIS/Include/cmsis_gcc.h **** #define __TZ_STACK_SEAL_SIZE      8U
 192:Drivers/CMSIS/Include/cmsis_gcc.h **** #endif
 193:Drivers/CMSIS/Include/cmsis_gcc.h **** 
 194:Drivers/CMSIS/Include/cmsis_gcc.h **** #ifndef __TZ_STACK_SEAL_VALUE
 195:Drivers/CMSIS/Include/cmsis_gcc.h **** #define __TZ_STACK_SEAL_VALUE     0xFEF5EDA5FEF5EDA5ULL
 196:Drivers/CMSIS/Include/cmsis_gcc.h **** #endif
 197:Drivers/CMSIS/Include/cmsis_gcc.h **** 
 198:Drivers/CMSIS/Include/cmsis_gcc.h **** 
 199:Drivers/CMSIS/Include/cmsis_gcc.h **** __STATIC_FORCEINLINE void __TZ_set_STACKSEAL_S (uint32_t* stackTop) {
 200:Drivers/CMSIS/Include/cmsis_gcc.h ****   *((uint64_t *)stackTop) = __TZ_STACK_SEAL_VALUE;
 201:Drivers/CMSIS/Include/cmsis_gcc.h **** }
 202:Drivers/CMSIS/Include/cmsis_gcc.h **** #endif
 203:Drivers/CMSIS/Include/cmsis_gcc.h **** 
 204:Drivers/CMSIS/Include/cmsis_gcc.h **** 
 205:Drivers/CMSIS/Include/cmsis_gcc.h **** /* ##########################  Core Instruction Access  ######################### */
 206:Drivers/CMSIS/Include/cmsis_gcc.h **** /** \defgroup CMSIS_Core_InstructionInterface CMSIS Core Instruction Interface
 207:Drivers/CMSIS/Include/cmsis_gcc.h ****   Access to dedicated instructions
 208:Drivers/CMSIS/Include/cmsis_gcc.h ****   @{
 209:Drivers/CMSIS/Include/cmsis_gcc.h **** */
 210:Drivers/CMSIS/Include/cmsis_gcc.h **** 
 211:Drivers/CMSIS/Include/cmsis_gcc.h **** /* Define macros for porting to both thumb1 and thumb2.
 212:Drivers/CMSIS/Include/cmsis_gcc.h ****  * For thumb1, use low register (r0-r7), specified by constraint "l"
 213:Drivers/CMSIS/Include/cmsis_gcc.h ****  * Otherwise, use general registers, specified by constraint "r" */
 214:Drivers/CMSIS/Include/cmsis_gcc.h **** #if defined (__thumb__) && !defined (__thumb2__)
 215:Drivers/CMSIS/Include/cmsis_gcc.h **** #define __CMSIS_GCC_OUT_REG(r) "=l" (r)
 216:Drivers/CMSIS/Include/cmsis_gcc.h **** #define __CMSIS_GCC_RW_REG(r) "+l" (r)
 217:Drivers/CMSIS/Include/cmsis_gcc.h **** #define __CMSIS_GCC_USE_REG(r) "l" (r)
 218:Drivers/CMSIS/Include/cmsis_gcc.h **** #else
 219:Drivers/CMSIS/Include/cmsis_gcc.h **** #define __CMSIS_GCC_OUT_REG(r) "=r" (r)
 220:Drivers/CMSIS/Include/cmsis_gcc.h **** #define __CMSIS_GCC_RW_REG(r) "+r" (r)
 221:Drivers/CMSIS/Include/cmsis_gcc.h **** #define __CMSIS_GCC_USE_REG(r) "r" (r)
 222:Drivers/CMSIS/Include/cmsis_gcc.h **** #endif
 223:Drivers/CMSIS/Include/cmsis_gcc.h **** 
 224:Drivers/CMSIS/Include/cmsis_gcc.h **** /**
 225:Drivers/CMSIS/Include/cmsis_gcc.h ****   \brief   No Operation
 226:Drivers/CMSIS/Include/cmsis_gcc.h ****   \details No Operation does nothing. This instruction can be used for code alignment purposes.
 227:Drivers/CMSIS/Include/cmsis_gcc.h ****  */
 228:Drivers/CMSIS/Include/cmsis_gcc.h **** #define __NOP()                             __ASM volatile ("nop")
 229:Drivers/CMSIS/Include/cmsis_gcc.h **** 
ARM GAS  /tmp/ccgGExpA.s 			page 51


 230:Drivers/CMSIS/Include/cmsis_gcc.h **** /**
 231:Drivers/CMSIS/Include/cmsis_gcc.h ****   \brief   Wait For Interrupt
 232:Drivers/CMSIS/Include/cmsis_gcc.h ****   \details Wait For Interrupt is a hint instruction that suspends execution until one of a number o
 233:Drivers/CMSIS/Include/cmsis_gcc.h ****  */
 234:Drivers/CMSIS/Include/cmsis_gcc.h **** #define __WFI()                             __ASM volatile ("wfi":::"memory")
 235:Drivers/CMSIS/Include/cmsis_gcc.h **** 
 236:Drivers/CMSIS/Include/cmsis_gcc.h **** 
 237:Drivers/CMSIS/Include/cmsis_gcc.h **** /**
 238:Drivers/CMSIS/Include/cmsis_gcc.h ****   \brief   Wait For Event
 239:Drivers/CMSIS/Include/cmsis_gcc.h ****   \details Wait For Event is a hint instruction that permits the processor to enter
 240:Drivers/CMSIS/Include/cmsis_gcc.h ****            a low-power state until one of a number of events occurs.
 241:Drivers/CMSIS/Include/cmsis_gcc.h ****  */
 242:Drivers/CMSIS/Include/cmsis_gcc.h **** #define __WFE()                             __ASM volatile ("wfe":::"memory")
 243:Drivers/CMSIS/Include/cmsis_gcc.h **** 
 244:Drivers/CMSIS/Include/cmsis_gcc.h **** 
 245:Drivers/CMSIS/Include/cmsis_gcc.h **** /**
 246:Drivers/CMSIS/Include/cmsis_gcc.h ****   \brief   Send Event
 247:Drivers/CMSIS/Include/cmsis_gcc.h ****   \details Send Event is a hint instruction. It causes an event to be signaled to the CPU.
 248:Drivers/CMSIS/Include/cmsis_gcc.h ****  */
 249:Drivers/CMSIS/Include/cmsis_gcc.h **** #define __SEV()                             __ASM volatile ("sev")
 250:Drivers/CMSIS/Include/cmsis_gcc.h **** 
 251:Drivers/CMSIS/Include/cmsis_gcc.h **** 
 252:Drivers/CMSIS/Include/cmsis_gcc.h **** /**
 253:Drivers/CMSIS/Include/cmsis_gcc.h ****   \brief   Instruction Synchronization Barrier
 254:Drivers/CMSIS/Include/cmsis_gcc.h ****   \details Instruction Synchronization Barrier flushes the pipeline in the processor,
 255:Drivers/CMSIS/Include/cmsis_gcc.h ****            so that all instructions following the ISB are fetched from cache or memory,
 256:Drivers/CMSIS/Include/cmsis_gcc.h ****            after the instruction has been completed.
 257:Drivers/CMSIS/Include/cmsis_gcc.h ****  */
 258:Drivers/CMSIS/Include/cmsis_gcc.h **** __STATIC_FORCEINLINE void __ISB(void)
 259:Drivers/CMSIS/Include/cmsis_gcc.h **** {
 260:Drivers/CMSIS/Include/cmsis_gcc.h ****   __ASM volatile ("isb 0xF":::"memory");
 261:Drivers/CMSIS/Include/cmsis_gcc.h **** }
 262:Drivers/CMSIS/Include/cmsis_gcc.h **** 
 263:Drivers/CMSIS/Include/cmsis_gcc.h **** 
 264:Drivers/CMSIS/Include/cmsis_gcc.h **** /**
 265:Drivers/CMSIS/Include/cmsis_gcc.h ****   \brief   Data Synchronization Barrier
 266:Drivers/CMSIS/Include/cmsis_gcc.h ****   \details Acts as a special kind of Data Memory Barrier.
 267:Drivers/CMSIS/Include/cmsis_gcc.h ****            It completes when all explicit memory accesses before this instruction complete.
 268:Drivers/CMSIS/Include/cmsis_gcc.h ****  */
 269:Drivers/CMSIS/Include/cmsis_gcc.h **** __STATIC_FORCEINLINE void __DSB(void)
 270:Drivers/CMSIS/Include/cmsis_gcc.h **** {
 271:Drivers/CMSIS/Include/cmsis_gcc.h ****   __ASM volatile ("dsb 0xF":::"memory");
 272:Drivers/CMSIS/Include/cmsis_gcc.h **** }
 273:Drivers/CMSIS/Include/cmsis_gcc.h **** 
 274:Drivers/CMSIS/Include/cmsis_gcc.h **** 
 275:Drivers/CMSIS/Include/cmsis_gcc.h **** /**
 276:Drivers/CMSIS/Include/cmsis_gcc.h ****   \brief   Data Memory Barrier
 277:Drivers/CMSIS/Include/cmsis_gcc.h ****   \details Ensures the apparent order of the explicit memory operations before
 278:Drivers/CMSIS/Include/cmsis_gcc.h ****            and after the instruction, without ensuring their completion.
 279:Drivers/CMSIS/Include/cmsis_gcc.h ****  */
 280:Drivers/CMSIS/Include/cmsis_gcc.h **** __STATIC_FORCEINLINE void __DMB(void)
 281:Drivers/CMSIS/Include/cmsis_gcc.h **** {
 282:Drivers/CMSIS/Include/cmsis_gcc.h ****   __ASM volatile ("dmb 0xF":::"memory");
 283:Drivers/CMSIS/Include/cmsis_gcc.h **** }
 284:Drivers/CMSIS/Include/cmsis_gcc.h **** 
 285:Drivers/CMSIS/Include/cmsis_gcc.h **** 
 286:Drivers/CMSIS/Include/cmsis_gcc.h **** /**
ARM GAS  /tmp/ccgGExpA.s 			page 52


 287:Drivers/CMSIS/Include/cmsis_gcc.h ****   \brief   Reverse byte order (32 bit)
 288:Drivers/CMSIS/Include/cmsis_gcc.h ****   \details Reverses the byte order in unsigned integer value. For example, 0x12345678 becomes 0x785
 289:Drivers/CMSIS/Include/cmsis_gcc.h ****   \param [in]    value  Value to reverse
 290:Drivers/CMSIS/Include/cmsis_gcc.h ****   \return               Reversed value
 291:Drivers/CMSIS/Include/cmsis_gcc.h ****  */
 292:Drivers/CMSIS/Include/cmsis_gcc.h **** __STATIC_FORCEINLINE uint32_t __REV(uint32_t value)
 293:Drivers/CMSIS/Include/cmsis_gcc.h **** {
 294:Drivers/CMSIS/Include/cmsis_gcc.h **** #if (__GNUC__ > 4) || (__GNUC__ == 4 && __GNUC_MINOR__ >= 5)
 295:Drivers/CMSIS/Include/cmsis_gcc.h ****   return __builtin_bswap32(value);
 296:Drivers/CMSIS/Include/cmsis_gcc.h **** #else
 297:Drivers/CMSIS/Include/cmsis_gcc.h ****   uint32_t result;
 298:Drivers/CMSIS/Include/cmsis_gcc.h **** 
 299:Drivers/CMSIS/Include/cmsis_gcc.h ****   __ASM ("rev %0, %1" : __CMSIS_GCC_OUT_REG (result) : __CMSIS_GCC_USE_REG (value) );
 300:Drivers/CMSIS/Include/cmsis_gcc.h ****   return result;
 301:Drivers/CMSIS/Include/cmsis_gcc.h **** #endif
 302:Drivers/CMSIS/Include/cmsis_gcc.h **** }
 303:Drivers/CMSIS/Include/cmsis_gcc.h **** 
 304:Drivers/CMSIS/Include/cmsis_gcc.h **** 
 305:Drivers/CMSIS/Include/cmsis_gcc.h **** /**
 306:Drivers/CMSIS/Include/cmsis_gcc.h ****   \brief   Reverse byte order (16 bit)
 307:Drivers/CMSIS/Include/cmsis_gcc.h ****   \details Reverses the byte order within each halfword of a word. For example, 0x12345678 becomes 
 308:Drivers/CMSIS/Include/cmsis_gcc.h ****   \param [in]    value  Value to reverse
 309:Drivers/CMSIS/Include/cmsis_gcc.h ****   \return               Reversed value
 310:Drivers/CMSIS/Include/cmsis_gcc.h ****  */
 311:Drivers/CMSIS/Include/cmsis_gcc.h **** __STATIC_FORCEINLINE uint32_t __REV16(uint32_t value)
 312:Drivers/CMSIS/Include/cmsis_gcc.h **** {
 313:Drivers/CMSIS/Include/cmsis_gcc.h ****   uint32_t result;
 314:Drivers/CMSIS/Include/cmsis_gcc.h **** 
 315:Drivers/CMSIS/Include/cmsis_gcc.h ****   __ASM ("rev16 %0, %1" : __CMSIS_GCC_OUT_REG (result) : __CMSIS_GCC_USE_REG (value) );
 316:Drivers/CMSIS/Include/cmsis_gcc.h ****   return result;
 317:Drivers/CMSIS/Include/cmsis_gcc.h **** }
 318:Drivers/CMSIS/Include/cmsis_gcc.h **** 
 319:Drivers/CMSIS/Include/cmsis_gcc.h **** 
 320:Drivers/CMSIS/Include/cmsis_gcc.h **** /**
 321:Drivers/CMSIS/Include/cmsis_gcc.h ****   \brief   Reverse byte order (16 bit)
 322:Drivers/CMSIS/Include/cmsis_gcc.h ****   \details Reverses the byte order in a 16-bit value and returns the signed 16-bit result. For exam
 323:Drivers/CMSIS/Include/cmsis_gcc.h ****   \param [in]    value  Value to reverse
 324:Drivers/CMSIS/Include/cmsis_gcc.h ****   \return               Reversed value
 325:Drivers/CMSIS/Include/cmsis_gcc.h ****  */
 326:Drivers/CMSIS/Include/cmsis_gcc.h **** __STATIC_FORCEINLINE int16_t __REVSH(int16_t value)
 327:Drivers/CMSIS/Include/cmsis_gcc.h **** {
 328:Drivers/CMSIS/Include/cmsis_gcc.h **** #if (__GNUC__ > 4) || (__GNUC__ == 4 && __GNUC_MINOR__ >= 8)
 329:Drivers/CMSIS/Include/cmsis_gcc.h ****   return (int16_t)__builtin_bswap16(value);
 330:Drivers/CMSIS/Include/cmsis_gcc.h **** #else
 331:Drivers/CMSIS/Include/cmsis_gcc.h ****   int16_t result;
 332:Drivers/CMSIS/Include/cmsis_gcc.h **** 
 333:Drivers/CMSIS/Include/cmsis_gcc.h ****   __ASM ("revsh %0, %1" : __CMSIS_GCC_OUT_REG (result) : __CMSIS_GCC_USE_REG (value) );
 334:Drivers/CMSIS/Include/cmsis_gcc.h ****   return result;
 335:Drivers/CMSIS/Include/cmsis_gcc.h **** #endif
 336:Drivers/CMSIS/Include/cmsis_gcc.h **** }
 337:Drivers/CMSIS/Include/cmsis_gcc.h **** 
 338:Drivers/CMSIS/Include/cmsis_gcc.h **** 
 339:Drivers/CMSIS/Include/cmsis_gcc.h **** /**
 340:Drivers/CMSIS/Include/cmsis_gcc.h ****   \brief   Rotate Right in unsigned value (32 bit)
 341:Drivers/CMSIS/Include/cmsis_gcc.h ****   \details Rotate Right (immediate) provides the value of the contents of a register rotated by a v
 342:Drivers/CMSIS/Include/cmsis_gcc.h ****   \param [in]    op1  Value to rotate
 343:Drivers/CMSIS/Include/cmsis_gcc.h ****   \param [in]    op2  Number of Bits to rotate
ARM GAS  /tmp/ccgGExpA.s 			page 53


 344:Drivers/CMSIS/Include/cmsis_gcc.h ****   \return               Rotated value
 345:Drivers/CMSIS/Include/cmsis_gcc.h ****  */
 346:Drivers/CMSIS/Include/cmsis_gcc.h **** __STATIC_FORCEINLINE uint32_t __ROR(uint32_t op1, uint32_t op2)
 347:Drivers/CMSIS/Include/cmsis_gcc.h **** {
 348:Drivers/CMSIS/Include/cmsis_gcc.h ****   op2 %= 32U;
 349:Drivers/CMSIS/Include/cmsis_gcc.h ****   if (op2 == 0U)
 350:Drivers/CMSIS/Include/cmsis_gcc.h ****   {
 351:Drivers/CMSIS/Include/cmsis_gcc.h ****     return op1;
 352:Drivers/CMSIS/Include/cmsis_gcc.h ****   }
 353:Drivers/CMSIS/Include/cmsis_gcc.h ****   return (op1 >> op2) | (op1 << (32U - op2));
 354:Drivers/CMSIS/Include/cmsis_gcc.h **** }
 355:Drivers/CMSIS/Include/cmsis_gcc.h **** 
 356:Drivers/CMSIS/Include/cmsis_gcc.h **** 
 357:Drivers/CMSIS/Include/cmsis_gcc.h **** /**
 358:Drivers/CMSIS/Include/cmsis_gcc.h ****   \brief   Breakpoint
 359:Drivers/CMSIS/Include/cmsis_gcc.h ****   \details Causes the processor to enter Debug state.
 360:Drivers/CMSIS/Include/cmsis_gcc.h ****            Debug tools can use this to investigate system state when the instruction at a particula
 361:Drivers/CMSIS/Include/cmsis_gcc.h ****   \param [in]    value  is ignored by the processor.
 362:Drivers/CMSIS/Include/cmsis_gcc.h ****                  If required, a debugger can use it to store additional information about the break
 363:Drivers/CMSIS/Include/cmsis_gcc.h ****  */
 364:Drivers/CMSIS/Include/cmsis_gcc.h **** #define __BKPT(value)                       __ASM volatile ("bkpt "#value)
 365:Drivers/CMSIS/Include/cmsis_gcc.h **** 
 366:Drivers/CMSIS/Include/cmsis_gcc.h **** 
 367:Drivers/CMSIS/Include/cmsis_gcc.h **** /**
 368:Drivers/CMSIS/Include/cmsis_gcc.h ****   \brief   Reverse bit order of value
 369:Drivers/CMSIS/Include/cmsis_gcc.h ****   \details Reverses the bit order of the given value.
 370:Drivers/CMSIS/Include/cmsis_gcc.h ****   \param [in]    value  Value to reverse
 371:Drivers/CMSIS/Include/cmsis_gcc.h ****   \return               Reversed value
 372:Drivers/CMSIS/Include/cmsis_gcc.h ****  */
 373:Drivers/CMSIS/Include/cmsis_gcc.h **** __STATIC_FORCEINLINE uint32_t __RBIT(uint32_t value)
 374:Drivers/CMSIS/Include/cmsis_gcc.h **** {
 375:Drivers/CMSIS/Include/cmsis_gcc.h ****   uint32_t result;
 376:Drivers/CMSIS/Include/cmsis_gcc.h **** 
 377:Drivers/CMSIS/Include/cmsis_gcc.h **** #if ((defined (__ARM_ARCH_7M__      ) && (__ARM_ARCH_7M__      == 1)) || \
 378:Drivers/CMSIS/Include/cmsis_gcc.h ****      (defined (__ARM_ARCH_7EM__     ) && (__ARM_ARCH_7EM__     == 1)) || \
 379:Drivers/CMSIS/Include/cmsis_gcc.h ****      (defined (__ARM_ARCH_8M_MAIN__ ) && (__ARM_ARCH_8M_MAIN__ == 1))    )
 380:Drivers/CMSIS/Include/cmsis_gcc.h ****    __ASM ("rbit %0, %1" : "=r" (result) : "r" (value) );
 381:Drivers/CMSIS/Include/cmsis_gcc.h **** #else
 382:Drivers/CMSIS/Include/cmsis_gcc.h ****   uint32_t s = (4U /*sizeof(v)*/ * 8U) - 1U; /* extra shift needed at end */
 383:Drivers/CMSIS/Include/cmsis_gcc.h **** 
 384:Drivers/CMSIS/Include/cmsis_gcc.h ****   result = value;                      /* r will be reversed bits of v; first get LSB of v */
 385:Drivers/CMSIS/Include/cmsis_gcc.h ****   for (value >>= 1U; value != 0U; value >>= 1U)
 386:Drivers/CMSIS/Include/cmsis_gcc.h ****   {
 387:Drivers/CMSIS/Include/cmsis_gcc.h ****     result <<= 1U;
 388:Drivers/CMSIS/Include/cmsis_gcc.h ****     result |= value & 1U;
 389:Drivers/CMSIS/Include/cmsis_gcc.h ****     s--;
 390:Drivers/CMSIS/Include/cmsis_gcc.h ****   }
 391:Drivers/CMSIS/Include/cmsis_gcc.h ****   result <<= s;                        /* shift when v's highest bits are zero */
 392:Drivers/CMSIS/Include/cmsis_gcc.h **** #endif
 393:Drivers/CMSIS/Include/cmsis_gcc.h ****   return result;
 394:Drivers/CMSIS/Include/cmsis_gcc.h **** }
 395:Drivers/CMSIS/Include/cmsis_gcc.h **** 
 396:Drivers/CMSIS/Include/cmsis_gcc.h **** 
 397:Drivers/CMSIS/Include/cmsis_gcc.h **** /**
 398:Drivers/CMSIS/Include/cmsis_gcc.h ****   \brief   Count leading zeros
 399:Drivers/CMSIS/Include/cmsis_gcc.h ****   \details Counts the number of leading zeros of a data value.
 400:Drivers/CMSIS/Include/cmsis_gcc.h ****   \param [in]  value  Value to count the leading zeros
ARM GAS  /tmp/ccgGExpA.s 			page 54


 401:Drivers/CMSIS/Include/cmsis_gcc.h ****   \return             number of leading zeros in value
 402:Drivers/CMSIS/Include/cmsis_gcc.h ****  */
 403:Drivers/CMSIS/Include/cmsis_gcc.h **** __STATIC_FORCEINLINE uint8_t __CLZ(uint32_t value)
 404:Drivers/CMSIS/Include/cmsis_gcc.h **** {
 405:Drivers/CMSIS/Include/cmsis_gcc.h ****   /* Even though __builtin_clz produces a CLZ instruction on ARM, formally
 406:Drivers/CMSIS/Include/cmsis_gcc.h ****      __builtin_clz(0) is undefined behaviour, so handle this case specially.
 407:Drivers/CMSIS/Include/cmsis_gcc.h ****      This guarantees ARM-compatible results if happening to compile on a non-ARM
 408:Drivers/CMSIS/Include/cmsis_gcc.h ****      target, and ensures the compiler doesn't decide to activate any
 409:Drivers/CMSIS/Include/cmsis_gcc.h ****      optimisations using the logic "value was passed to __builtin_clz, so it
 410:Drivers/CMSIS/Include/cmsis_gcc.h ****      is non-zero".
 411:Drivers/CMSIS/Include/cmsis_gcc.h ****      ARM GCC 7.3 and possibly earlier will optimise this test away, leaving a
 412:Drivers/CMSIS/Include/cmsis_gcc.h ****      single CLZ instruction.
 413:Drivers/CMSIS/Include/cmsis_gcc.h ****    */
 414:Drivers/CMSIS/Include/cmsis_gcc.h ****   if (value == 0U)
 415:Drivers/CMSIS/Include/cmsis_gcc.h ****   {
 416:Drivers/CMSIS/Include/cmsis_gcc.h ****     return 32U;
 417:Drivers/CMSIS/Include/cmsis_gcc.h ****   }
 418:Drivers/CMSIS/Include/cmsis_gcc.h ****   return __builtin_clz(value);
 419:Drivers/CMSIS/Include/cmsis_gcc.h **** }
 420:Drivers/CMSIS/Include/cmsis_gcc.h **** 
 421:Drivers/CMSIS/Include/cmsis_gcc.h **** 
 422:Drivers/CMSIS/Include/cmsis_gcc.h **** #if ((defined (__ARM_ARCH_7M__      ) && (__ARM_ARCH_7M__      == 1)) || \
 423:Drivers/CMSIS/Include/cmsis_gcc.h ****      (defined (__ARM_ARCH_7EM__     ) && (__ARM_ARCH_7EM__     == 1)) || \
 424:Drivers/CMSIS/Include/cmsis_gcc.h ****      (defined (__ARM_ARCH_8M_MAIN__ ) && (__ARM_ARCH_8M_MAIN__ == 1)) || \
 425:Drivers/CMSIS/Include/cmsis_gcc.h ****      (defined (__ARM_ARCH_8M_BASE__ ) && (__ARM_ARCH_8M_BASE__ == 1))    )
 426:Drivers/CMSIS/Include/cmsis_gcc.h **** /**
 427:Drivers/CMSIS/Include/cmsis_gcc.h ****   \brief   LDR Exclusive (8 bit)
 428:Drivers/CMSIS/Include/cmsis_gcc.h ****   \details Executes a exclusive LDR instruction for 8 bit value.
 429:Drivers/CMSIS/Include/cmsis_gcc.h ****   \param [in]    ptr  Pointer to data
 430:Drivers/CMSIS/Include/cmsis_gcc.h ****   \return             value of type uint8_t at (*ptr)
 431:Drivers/CMSIS/Include/cmsis_gcc.h ****  */
 432:Drivers/CMSIS/Include/cmsis_gcc.h **** __STATIC_FORCEINLINE uint8_t __LDREXB(volatile uint8_t *addr)
 433:Drivers/CMSIS/Include/cmsis_gcc.h **** {
 434:Drivers/CMSIS/Include/cmsis_gcc.h ****     uint32_t result;
 435:Drivers/CMSIS/Include/cmsis_gcc.h **** 
 436:Drivers/CMSIS/Include/cmsis_gcc.h **** #if (__GNUC__ > 4) || (__GNUC__ == 4 && __GNUC_MINOR__ >= 8)
 437:Drivers/CMSIS/Include/cmsis_gcc.h ****    __ASM volatile ("ldrexb %0, %1" : "=r" (result) : "Q" (*addr) );
 438:Drivers/CMSIS/Include/cmsis_gcc.h **** #else
 439:Drivers/CMSIS/Include/cmsis_gcc.h ****     /* Prior to GCC 4.8, "Q" will be expanded to [rx, #0] which is not
 440:Drivers/CMSIS/Include/cmsis_gcc.h ****        accepted by assembler. So has to use following less efficient pattern.
 441:Drivers/CMSIS/Include/cmsis_gcc.h ****     */
 442:Drivers/CMSIS/Include/cmsis_gcc.h ****    __ASM volatile ("ldrexb %0, [%1]" : "=r" (result) : "r" (addr) : "memory" );
 443:Drivers/CMSIS/Include/cmsis_gcc.h **** #endif
 444:Drivers/CMSIS/Include/cmsis_gcc.h ****    return ((uint8_t) result);    /* Add explicit type cast here */
 445:Drivers/CMSIS/Include/cmsis_gcc.h **** }
 446:Drivers/CMSIS/Include/cmsis_gcc.h **** 
 447:Drivers/CMSIS/Include/cmsis_gcc.h **** 
 448:Drivers/CMSIS/Include/cmsis_gcc.h **** /**
 449:Drivers/CMSIS/Include/cmsis_gcc.h ****   \brief   LDR Exclusive (16 bit)
 450:Drivers/CMSIS/Include/cmsis_gcc.h ****   \details Executes a exclusive LDR instruction for 16 bit values.
 451:Drivers/CMSIS/Include/cmsis_gcc.h ****   \param [in]    ptr  Pointer to data
 452:Drivers/CMSIS/Include/cmsis_gcc.h ****   \return        value of type uint16_t at (*ptr)
 453:Drivers/CMSIS/Include/cmsis_gcc.h ****  */
 454:Drivers/CMSIS/Include/cmsis_gcc.h **** __STATIC_FORCEINLINE uint16_t __LDREXH(volatile uint16_t *addr)
 455:Drivers/CMSIS/Include/cmsis_gcc.h **** {
 456:Drivers/CMSIS/Include/cmsis_gcc.h ****     uint32_t result;
 457:Drivers/CMSIS/Include/cmsis_gcc.h **** 
ARM GAS  /tmp/ccgGExpA.s 			page 55


 458:Drivers/CMSIS/Include/cmsis_gcc.h **** #if (__GNUC__ > 4) || (__GNUC__ == 4 && __GNUC_MINOR__ >= 8)
 459:Drivers/CMSIS/Include/cmsis_gcc.h ****    __ASM volatile ("ldrexh %0, %1" : "=r" (result) : "Q" (*addr) );
 460:Drivers/CMSIS/Include/cmsis_gcc.h **** #else
 461:Drivers/CMSIS/Include/cmsis_gcc.h ****     /* Prior to GCC 4.8, "Q" will be expanded to [rx, #0] which is not
 462:Drivers/CMSIS/Include/cmsis_gcc.h ****        accepted by assembler. So has to use following less efficient pattern.
 463:Drivers/CMSIS/Include/cmsis_gcc.h ****     */
 464:Drivers/CMSIS/Include/cmsis_gcc.h ****    __ASM volatile ("ldrexh %0, [%1]" : "=r" (result) : "r" (addr) : "memory" );
 465:Drivers/CMSIS/Include/cmsis_gcc.h **** #endif
 466:Drivers/CMSIS/Include/cmsis_gcc.h ****    return ((uint16_t) result);    /* Add explicit type cast here */
 467:Drivers/CMSIS/Include/cmsis_gcc.h **** }
 468:Drivers/CMSIS/Include/cmsis_gcc.h **** 
 469:Drivers/CMSIS/Include/cmsis_gcc.h **** 
 470:Drivers/CMSIS/Include/cmsis_gcc.h **** /**
 471:Drivers/CMSIS/Include/cmsis_gcc.h ****   \brief   LDR Exclusive (32 bit)
 472:Drivers/CMSIS/Include/cmsis_gcc.h ****   \details Executes a exclusive LDR instruction for 32 bit values.
 473:Drivers/CMSIS/Include/cmsis_gcc.h ****   \param [in]    ptr  Pointer to data
 474:Drivers/CMSIS/Include/cmsis_gcc.h ****   \return        value of type uint32_t at (*ptr)
 475:Drivers/CMSIS/Include/cmsis_gcc.h ****  */
 476:Drivers/CMSIS/Include/cmsis_gcc.h **** __STATIC_FORCEINLINE uint32_t __LDREXW(volatile uint32_t *addr)
 477:Drivers/CMSIS/Include/cmsis_gcc.h **** {
 478:Drivers/CMSIS/Include/cmsis_gcc.h ****     uint32_t result;
 479:Drivers/CMSIS/Include/cmsis_gcc.h **** 
 480:Drivers/CMSIS/Include/cmsis_gcc.h ****    __ASM volatile ("ldrex %0, %1" : "=r" (result) : "Q" (*addr) );
 481:Drivers/CMSIS/Include/cmsis_gcc.h ****    return(result);
 482:Drivers/CMSIS/Include/cmsis_gcc.h **** }
 483:Drivers/CMSIS/Include/cmsis_gcc.h **** 
 484:Drivers/CMSIS/Include/cmsis_gcc.h **** 
 485:Drivers/CMSIS/Include/cmsis_gcc.h **** /**
 486:Drivers/CMSIS/Include/cmsis_gcc.h ****   \brief   STR Exclusive (8 bit)
 487:Drivers/CMSIS/Include/cmsis_gcc.h ****   \details Executes a exclusive STR instruction for 8 bit values.
 488:Drivers/CMSIS/Include/cmsis_gcc.h ****   \param [in]  value  Value to store
 489:Drivers/CMSIS/Include/cmsis_gcc.h ****   \param [in]    ptr  Pointer to location
 490:Drivers/CMSIS/Include/cmsis_gcc.h ****   \return          0  Function succeeded
 491:Drivers/CMSIS/Include/cmsis_gcc.h ****   \return          1  Function failed
 492:Drivers/CMSIS/Include/cmsis_gcc.h ****  */
 493:Drivers/CMSIS/Include/cmsis_gcc.h **** __STATIC_FORCEINLINE uint32_t __STREXB(uint8_t value, volatile uint8_t *addr)
 494:Drivers/CMSIS/Include/cmsis_gcc.h **** {
 495:Drivers/CMSIS/Include/cmsis_gcc.h ****    uint32_t result;
 496:Drivers/CMSIS/Include/cmsis_gcc.h **** 
 497:Drivers/CMSIS/Include/cmsis_gcc.h ****    __ASM volatile ("strexb %0, %2, %1" : "=&r" (result), "=Q" (*addr) : "r" ((uint32_t)value) );
 498:Drivers/CMSIS/Include/cmsis_gcc.h ****    return(result);
 499:Drivers/CMSIS/Include/cmsis_gcc.h **** }
 500:Drivers/CMSIS/Include/cmsis_gcc.h **** 
 501:Drivers/CMSIS/Include/cmsis_gcc.h **** 
 502:Drivers/CMSIS/Include/cmsis_gcc.h **** /**
 503:Drivers/CMSIS/Include/cmsis_gcc.h ****   \brief   STR Exclusive (16 bit)
 504:Drivers/CMSIS/Include/cmsis_gcc.h ****   \details Executes a exclusive STR instruction for 16 bit values.
 505:Drivers/CMSIS/Include/cmsis_gcc.h ****   \param [in]  value  Value to store
 506:Drivers/CMSIS/Include/cmsis_gcc.h ****   \param [in]    ptr  Pointer to location
 507:Drivers/CMSIS/Include/cmsis_gcc.h ****   \return          0  Function succeeded
 508:Drivers/CMSIS/Include/cmsis_gcc.h ****   \return          1  Function failed
 509:Drivers/CMSIS/Include/cmsis_gcc.h ****  */
 510:Drivers/CMSIS/Include/cmsis_gcc.h **** __STATIC_FORCEINLINE uint32_t __STREXH(uint16_t value, volatile uint16_t *addr)
 511:Drivers/CMSIS/Include/cmsis_gcc.h **** {
 512:Drivers/CMSIS/Include/cmsis_gcc.h ****    uint32_t result;
 513:Drivers/CMSIS/Include/cmsis_gcc.h **** 
 514:Drivers/CMSIS/Include/cmsis_gcc.h ****    __ASM volatile ("strexh %0, %2, %1" : "=&r" (result), "=Q" (*addr) : "r" ((uint32_t)value) );
ARM GAS  /tmp/ccgGExpA.s 			page 56


 515:Drivers/CMSIS/Include/cmsis_gcc.h ****    return(result);
 516:Drivers/CMSIS/Include/cmsis_gcc.h **** }
 517:Drivers/CMSIS/Include/cmsis_gcc.h **** 
 518:Drivers/CMSIS/Include/cmsis_gcc.h **** 
 519:Drivers/CMSIS/Include/cmsis_gcc.h **** /**
 520:Drivers/CMSIS/Include/cmsis_gcc.h ****   \brief   STR Exclusive (32 bit)
 521:Drivers/CMSIS/Include/cmsis_gcc.h ****   \details Executes a exclusive STR instruction for 32 bit values.
 522:Drivers/CMSIS/Include/cmsis_gcc.h ****   \param [in]  value  Value to store
 523:Drivers/CMSIS/Include/cmsis_gcc.h ****   \param [in]    ptr  Pointer to location
 524:Drivers/CMSIS/Include/cmsis_gcc.h ****   \return          0  Function succeeded
 525:Drivers/CMSIS/Include/cmsis_gcc.h ****   \return          1  Function failed
 526:Drivers/CMSIS/Include/cmsis_gcc.h ****  */
 527:Drivers/CMSIS/Include/cmsis_gcc.h **** __STATIC_FORCEINLINE uint32_t __STREXW(uint32_t value, volatile uint32_t *addr)
 528:Drivers/CMSIS/Include/cmsis_gcc.h **** {
 529:Drivers/CMSIS/Include/cmsis_gcc.h ****    uint32_t result;
 530:Drivers/CMSIS/Include/cmsis_gcc.h **** 
 531:Drivers/CMSIS/Include/cmsis_gcc.h ****    __ASM volatile ("strex %0, %2, %1" : "=&r" (result), "=Q" (*addr) : "r" (value) );
 532:Drivers/CMSIS/Include/cmsis_gcc.h ****    return(result);
 533:Drivers/CMSIS/Include/cmsis_gcc.h **** }
 534:Drivers/CMSIS/Include/cmsis_gcc.h **** 
 535:Drivers/CMSIS/Include/cmsis_gcc.h **** 
 536:Drivers/CMSIS/Include/cmsis_gcc.h **** /**
 537:Drivers/CMSIS/Include/cmsis_gcc.h ****   \brief   Remove the exclusive lock
 538:Drivers/CMSIS/Include/cmsis_gcc.h ****   \details Removes the exclusive lock which is created by LDREX.
 539:Drivers/CMSIS/Include/cmsis_gcc.h ****  */
 540:Drivers/CMSIS/Include/cmsis_gcc.h **** __STATIC_FORCEINLINE void __CLREX(void)
 541:Drivers/CMSIS/Include/cmsis_gcc.h **** {
 542:Drivers/CMSIS/Include/cmsis_gcc.h ****   __ASM volatile ("clrex" ::: "memory");
 543:Drivers/CMSIS/Include/cmsis_gcc.h **** }
 544:Drivers/CMSIS/Include/cmsis_gcc.h **** 
 545:Drivers/CMSIS/Include/cmsis_gcc.h **** #endif /* ((defined (__ARM_ARCH_7M__      ) && (__ARM_ARCH_7M__      == 1)) || \
 546:Drivers/CMSIS/Include/cmsis_gcc.h ****            (defined (__ARM_ARCH_7EM__     ) && (__ARM_ARCH_7EM__     == 1)) || \
 547:Drivers/CMSIS/Include/cmsis_gcc.h ****            (defined (__ARM_ARCH_8M_MAIN__ ) && (__ARM_ARCH_8M_MAIN__ == 1)) || \
 548:Drivers/CMSIS/Include/cmsis_gcc.h ****            (defined (__ARM_ARCH_8M_BASE__ ) && (__ARM_ARCH_8M_BASE__ == 1))    ) */
 549:Drivers/CMSIS/Include/cmsis_gcc.h **** 
 550:Drivers/CMSIS/Include/cmsis_gcc.h **** 
 551:Drivers/CMSIS/Include/cmsis_gcc.h **** #if ((defined (__ARM_ARCH_7M__      ) && (__ARM_ARCH_7M__      == 1)) || \
 552:Drivers/CMSIS/Include/cmsis_gcc.h ****      (defined (__ARM_ARCH_7EM__     ) && (__ARM_ARCH_7EM__     == 1)) || \
 553:Drivers/CMSIS/Include/cmsis_gcc.h ****      (defined (__ARM_ARCH_8M_MAIN__ ) && (__ARM_ARCH_8M_MAIN__ == 1))    )
 554:Drivers/CMSIS/Include/cmsis_gcc.h **** /**
 555:Drivers/CMSIS/Include/cmsis_gcc.h ****   \brief   Signed Saturate
 556:Drivers/CMSIS/Include/cmsis_gcc.h ****   \details Saturates a signed value.
 557:Drivers/CMSIS/Include/cmsis_gcc.h ****   \param [in]  ARG1  Value to be saturated
 558:Drivers/CMSIS/Include/cmsis_gcc.h ****   \param [in]  ARG2  Bit position to saturate to (1..32)
 559:Drivers/CMSIS/Include/cmsis_gcc.h ****   \return             Saturated value
 560:Drivers/CMSIS/Include/cmsis_gcc.h ****  */
 561:Drivers/CMSIS/Include/cmsis_gcc.h **** #define __SSAT(ARG1, ARG2) \
 562:Drivers/CMSIS/Include/cmsis_gcc.h **** __extension__ \
 563:Drivers/CMSIS/Include/cmsis_gcc.h **** ({                          \
 564:Drivers/CMSIS/Include/cmsis_gcc.h ****   int32_t __RES, __ARG1 = (ARG1); \
 565:Drivers/CMSIS/Include/cmsis_gcc.h ****   __ASM volatile ("ssat %0, %1, %2" : "=r" (__RES) :  "I" (ARG2), "r" (__ARG1) : "cc" ); \
 566:Drivers/CMSIS/Include/cmsis_gcc.h ****   __RES; \
 567:Drivers/CMSIS/Include/cmsis_gcc.h ****  })
 568:Drivers/CMSIS/Include/cmsis_gcc.h **** 
 569:Drivers/CMSIS/Include/cmsis_gcc.h **** 
 570:Drivers/CMSIS/Include/cmsis_gcc.h **** /**
 571:Drivers/CMSIS/Include/cmsis_gcc.h ****   \brief   Unsigned Saturate
ARM GAS  /tmp/ccgGExpA.s 			page 57


 572:Drivers/CMSIS/Include/cmsis_gcc.h ****   \details Saturates an unsigned value.
 573:Drivers/CMSIS/Include/cmsis_gcc.h ****   \param [in]  ARG1  Value to be saturated
 574:Drivers/CMSIS/Include/cmsis_gcc.h ****   \param [in]  ARG2  Bit position to saturate to (0..31)
 575:Drivers/CMSIS/Include/cmsis_gcc.h ****   \return             Saturated value
 576:Drivers/CMSIS/Include/cmsis_gcc.h ****  */
 577:Drivers/CMSIS/Include/cmsis_gcc.h **** #define __USAT(ARG1, ARG2) \
 578:Drivers/CMSIS/Include/cmsis_gcc.h **** __extension__ \
 579:Drivers/CMSIS/Include/cmsis_gcc.h **** ({                          \
 580:Drivers/CMSIS/Include/cmsis_gcc.h ****   uint32_t __RES, __ARG1 = (ARG1); \
 581:Drivers/CMSIS/Include/cmsis_gcc.h ****   __ASM volatile ("usat %0, %1, %2" : "=r" (__RES) :  "I" (ARG2), "r" (__ARG1) : "cc" ); \
 582:Drivers/CMSIS/Include/cmsis_gcc.h ****   __RES; \
 583:Drivers/CMSIS/Include/cmsis_gcc.h ****  })
 584:Drivers/CMSIS/Include/cmsis_gcc.h **** 
 585:Drivers/CMSIS/Include/cmsis_gcc.h **** 
 586:Drivers/CMSIS/Include/cmsis_gcc.h **** /**
 587:Drivers/CMSIS/Include/cmsis_gcc.h ****   \brief   Rotate Right with Extend (32 bit)
 588:Drivers/CMSIS/Include/cmsis_gcc.h ****   \details Moves each bit of a bitstring right by one bit.
 589:Drivers/CMSIS/Include/cmsis_gcc.h ****            The carry input is shifted in at the left end of the bitstring.
 590:Drivers/CMSIS/Include/cmsis_gcc.h ****   \param [in]    value  Value to rotate
 591:Drivers/CMSIS/Include/cmsis_gcc.h ****   \return               Rotated value
 592:Drivers/CMSIS/Include/cmsis_gcc.h ****  */
 593:Drivers/CMSIS/Include/cmsis_gcc.h **** __STATIC_FORCEINLINE uint32_t __RRX(uint32_t value)
 594:Drivers/CMSIS/Include/cmsis_gcc.h **** {
 595:Drivers/CMSIS/Include/cmsis_gcc.h ****   uint32_t result;
 596:Drivers/CMSIS/Include/cmsis_gcc.h **** 
 597:Drivers/CMSIS/Include/cmsis_gcc.h ****   __ASM volatile ("rrx %0, %1" : __CMSIS_GCC_OUT_REG (result) : __CMSIS_GCC_USE_REG (value) );
 598:Drivers/CMSIS/Include/cmsis_gcc.h ****   return(result);
 599:Drivers/CMSIS/Include/cmsis_gcc.h **** }
 600:Drivers/CMSIS/Include/cmsis_gcc.h **** 
 601:Drivers/CMSIS/Include/cmsis_gcc.h **** 
 602:Drivers/CMSIS/Include/cmsis_gcc.h **** /**
 603:Drivers/CMSIS/Include/cmsis_gcc.h ****   \brief   LDRT Unprivileged (8 bit)
 604:Drivers/CMSIS/Include/cmsis_gcc.h ****   \details Executes a Unprivileged LDRT instruction for 8 bit value.
 605:Drivers/CMSIS/Include/cmsis_gcc.h ****   \param [in]    ptr  Pointer to data
 606:Drivers/CMSIS/Include/cmsis_gcc.h ****   \return             value of type uint8_t at (*ptr)
 607:Drivers/CMSIS/Include/cmsis_gcc.h ****  */
 608:Drivers/CMSIS/Include/cmsis_gcc.h **** __STATIC_FORCEINLINE uint8_t __LDRBT(volatile uint8_t *ptr)
 609:Drivers/CMSIS/Include/cmsis_gcc.h **** {
 610:Drivers/CMSIS/Include/cmsis_gcc.h ****     uint32_t result;
 611:Drivers/CMSIS/Include/cmsis_gcc.h **** 
 612:Drivers/CMSIS/Include/cmsis_gcc.h **** #if (__GNUC__ > 4) || (__GNUC__ == 4 && __GNUC_MINOR__ >= 8)
 613:Drivers/CMSIS/Include/cmsis_gcc.h ****    __ASM volatile ("ldrbt %0, %1" : "=r" (result) : "Q" (*ptr) );
 614:Drivers/CMSIS/Include/cmsis_gcc.h **** #else
 615:Drivers/CMSIS/Include/cmsis_gcc.h ****     /* Prior to GCC 4.8, "Q" will be expanded to [rx, #0] which is not
 616:Drivers/CMSIS/Include/cmsis_gcc.h ****        accepted by assembler. So has to use following less efficient pattern.
 617:Drivers/CMSIS/Include/cmsis_gcc.h ****     */
 618:Drivers/CMSIS/Include/cmsis_gcc.h ****    __ASM volatile ("ldrbt %0, [%1]" : "=r" (result) : "r" (ptr) : "memory" );
 619:Drivers/CMSIS/Include/cmsis_gcc.h **** #endif
 620:Drivers/CMSIS/Include/cmsis_gcc.h ****    return ((uint8_t) result);    /* Add explicit type cast here */
 621:Drivers/CMSIS/Include/cmsis_gcc.h **** }
 622:Drivers/CMSIS/Include/cmsis_gcc.h **** 
 623:Drivers/CMSIS/Include/cmsis_gcc.h **** 
 624:Drivers/CMSIS/Include/cmsis_gcc.h **** /**
 625:Drivers/CMSIS/Include/cmsis_gcc.h ****   \brief   LDRT Unprivileged (16 bit)
 626:Drivers/CMSIS/Include/cmsis_gcc.h ****   \details Executes a Unprivileged LDRT instruction for 16 bit values.
 627:Drivers/CMSIS/Include/cmsis_gcc.h ****   \param [in]    ptr  Pointer to data
 628:Drivers/CMSIS/Include/cmsis_gcc.h ****   \return        value of type uint16_t at (*ptr)
ARM GAS  /tmp/ccgGExpA.s 			page 58


 629:Drivers/CMSIS/Include/cmsis_gcc.h ****  */
 630:Drivers/CMSIS/Include/cmsis_gcc.h **** __STATIC_FORCEINLINE uint16_t __LDRHT(volatile uint16_t *ptr)
 631:Drivers/CMSIS/Include/cmsis_gcc.h **** {
 632:Drivers/CMSIS/Include/cmsis_gcc.h ****     uint32_t result;
 633:Drivers/CMSIS/Include/cmsis_gcc.h **** 
 634:Drivers/CMSIS/Include/cmsis_gcc.h **** #if (__GNUC__ > 4) || (__GNUC__ == 4 && __GNUC_MINOR__ >= 8)
 635:Drivers/CMSIS/Include/cmsis_gcc.h ****    __ASM volatile ("ldrht %0, %1" : "=r" (result) : "Q" (*ptr) );
 636:Drivers/CMSIS/Include/cmsis_gcc.h **** #else
 637:Drivers/CMSIS/Include/cmsis_gcc.h ****     /* Prior to GCC 4.8, "Q" will be expanded to [rx, #0] which is not
 638:Drivers/CMSIS/Include/cmsis_gcc.h ****        accepted by assembler. So has to use following less efficient pattern.
 639:Drivers/CMSIS/Include/cmsis_gcc.h ****     */
 640:Drivers/CMSIS/Include/cmsis_gcc.h ****    __ASM volatile ("ldrht %0, [%1]" : "=r" (result) : "r" (ptr) : "memory" );
 641:Drivers/CMSIS/Include/cmsis_gcc.h **** #endif
 642:Drivers/CMSIS/Include/cmsis_gcc.h ****    return ((uint16_t) result);    /* Add explicit type cast here */
 643:Drivers/CMSIS/Include/cmsis_gcc.h **** }
 644:Drivers/CMSIS/Include/cmsis_gcc.h **** 
 645:Drivers/CMSIS/Include/cmsis_gcc.h **** 
 646:Drivers/CMSIS/Include/cmsis_gcc.h **** /**
 647:Drivers/CMSIS/Include/cmsis_gcc.h ****   \brief   LDRT Unprivileged (32 bit)
 648:Drivers/CMSIS/Include/cmsis_gcc.h ****   \details Executes a Unprivileged LDRT instruction for 32 bit values.
 649:Drivers/CMSIS/Include/cmsis_gcc.h ****   \param [in]    ptr  Pointer to data
 650:Drivers/CMSIS/Include/cmsis_gcc.h ****   \return        value of type uint32_t at (*ptr)
 651:Drivers/CMSIS/Include/cmsis_gcc.h ****  */
 652:Drivers/CMSIS/Include/cmsis_gcc.h **** __STATIC_FORCEINLINE uint32_t __LDRT(volatile uint32_t *ptr)
 653:Drivers/CMSIS/Include/cmsis_gcc.h **** {
 654:Drivers/CMSIS/Include/cmsis_gcc.h ****     uint32_t result;
 655:Drivers/CMSIS/Include/cmsis_gcc.h **** 
 656:Drivers/CMSIS/Include/cmsis_gcc.h ****    __ASM volatile ("ldrt %0, %1" : "=r" (result) : "Q" (*ptr) );
 657:Drivers/CMSIS/Include/cmsis_gcc.h ****    return(result);
 658:Drivers/CMSIS/Include/cmsis_gcc.h **** }
 659:Drivers/CMSIS/Include/cmsis_gcc.h **** 
 660:Drivers/CMSIS/Include/cmsis_gcc.h **** 
 661:Drivers/CMSIS/Include/cmsis_gcc.h **** /**
 662:Drivers/CMSIS/Include/cmsis_gcc.h ****   \brief   STRT Unprivileged (8 bit)
 663:Drivers/CMSIS/Include/cmsis_gcc.h ****   \details Executes a Unprivileged STRT instruction for 8 bit values.
 664:Drivers/CMSIS/Include/cmsis_gcc.h ****   \param [in]  value  Value to store
 665:Drivers/CMSIS/Include/cmsis_gcc.h ****   \param [in]    ptr  Pointer to location
 666:Drivers/CMSIS/Include/cmsis_gcc.h ****  */
 667:Drivers/CMSIS/Include/cmsis_gcc.h **** __STATIC_FORCEINLINE void __STRBT(uint8_t value, volatile uint8_t *ptr)
 668:Drivers/CMSIS/Include/cmsis_gcc.h **** {
 669:Drivers/CMSIS/Include/cmsis_gcc.h ****    __ASM volatile ("strbt %1, %0" : "=Q" (*ptr) : "r" ((uint32_t)value) );
 670:Drivers/CMSIS/Include/cmsis_gcc.h **** }
 671:Drivers/CMSIS/Include/cmsis_gcc.h **** 
 672:Drivers/CMSIS/Include/cmsis_gcc.h **** 
 673:Drivers/CMSIS/Include/cmsis_gcc.h **** /**
 674:Drivers/CMSIS/Include/cmsis_gcc.h ****   \brief   STRT Unprivileged (16 bit)
 675:Drivers/CMSIS/Include/cmsis_gcc.h ****   \details Executes a Unprivileged STRT instruction for 16 bit values.
 676:Drivers/CMSIS/Include/cmsis_gcc.h ****   \param [in]  value  Value to store
 677:Drivers/CMSIS/Include/cmsis_gcc.h ****   \param [in]    ptr  Pointer to location
 678:Drivers/CMSIS/Include/cmsis_gcc.h ****  */
 679:Drivers/CMSIS/Include/cmsis_gcc.h **** __STATIC_FORCEINLINE void __STRHT(uint16_t value, volatile uint16_t *ptr)
 680:Drivers/CMSIS/Include/cmsis_gcc.h **** {
 681:Drivers/CMSIS/Include/cmsis_gcc.h ****    __ASM volatile ("strht %1, %0" : "=Q" (*ptr) : "r" ((uint32_t)value) );
 682:Drivers/CMSIS/Include/cmsis_gcc.h **** }
 683:Drivers/CMSIS/Include/cmsis_gcc.h **** 
 684:Drivers/CMSIS/Include/cmsis_gcc.h **** 
 685:Drivers/CMSIS/Include/cmsis_gcc.h **** /**
ARM GAS  /tmp/ccgGExpA.s 			page 59


 686:Drivers/CMSIS/Include/cmsis_gcc.h ****   \brief   STRT Unprivileged (32 bit)
 687:Drivers/CMSIS/Include/cmsis_gcc.h ****   \details Executes a Unprivileged STRT instruction for 32 bit values.
 688:Drivers/CMSIS/Include/cmsis_gcc.h ****   \param [in]  value  Value to store
 689:Drivers/CMSIS/Include/cmsis_gcc.h ****   \param [in]    ptr  Pointer to location
 690:Drivers/CMSIS/Include/cmsis_gcc.h ****  */
 691:Drivers/CMSIS/Include/cmsis_gcc.h **** __STATIC_FORCEINLINE void __STRT(uint32_t value, volatile uint32_t *ptr)
 692:Drivers/CMSIS/Include/cmsis_gcc.h **** {
 693:Drivers/CMSIS/Include/cmsis_gcc.h ****    __ASM volatile ("strt %1, %0" : "=Q" (*ptr) : "r" (value) );
 694:Drivers/CMSIS/Include/cmsis_gcc.h **** }
 695:Drivers/CMSIS/Include/cmsis_gcc.h **** 
 696:Drivers/CMSIS/Include/cmsis_gcc.h **** #else  /* ((defined (__ARM_ARCH_7M__      ) && (__ARM_ARCH_7M__      == 1)) || \
 697:Drivers/CMSIS/Include/cmsis_gcc.h ****            (defined (__ARM_ARCH_7EM__     ) && (__ARM_ARCH_7EM__     == 1)) || \
 698:Drivers/CMSIS/Include/cmsis_gcc.h ****            (defined (__ARM_ARCH_8M_MAIN__ ) && (__ARM_ARCH_8M_MAIN__ == 1))    ) */
 699:Drivers/CMSIS/Include/cmsis_gcc.h **** 
 700:Drivers/CMSIS/Include/cmsis_gcc.h **** /**
 701:Drivers/CMSIS/Include/cmsis_gcc.h ****   \brief   Signed Saturate
 702:Drivers/CMSIS/Include/cmsis_gcc.h ****   \details Saturates a signed value.
 703:Drivers/CMSIS/Include/cmsis_gcc.h ****   \param [in]  value  Value to be saturated
 704:Drivers/CMSIS/Include/cmsis_gcc.h ****   \param [in]    sat  Bit position to saturate to (1..32)
 705:Drivers/CMSIS/Include/cmsis_gcc.h ****   \return             Saturated value
 706:Drivers/CMSIS/Include/cmsis_gcc.h ****  */
 707:Drivers/CMSIS/Include/cmsis_gcc.h **** __STATIC_FORCEINLINE int32_t __SSAT(int32_t val, uint32_t sat)
 708:Drivers/CMSIS/Include/cmsis_gcc.h **** {
 709:Drivers/CMSIS/Include/cmsis_gcc.h ****   if ((sat >= 1U) && (sat <= 32U))
 710:Drivers/CMSIS/Include/cmsis_gcc.h ****   {
 711:Drivers/CMSIS/Include/cmsis_gcc.h ****     const int32_t max = (int32_t)((1U << (sat - 1U)) - 1U);
 712:Drivers/CMSIS/Include/cmsis_gcc.h ****     const int32_t min = -1 - max ;
 713:Drivers/CMSIS/Include/cmsis_gcc.h ****     if (val > max)
 714:Drivers/CMSIS/Include/cmsis_gcc.h ****     {
 715:Drivers/CMSIS/Include/cmsis_gcc.h ****       return max;
 716:Drivers/CMSIS/Include/cmsis_gcc.h ****     }
 717:Drivers/CMSIS/Include/cmsis_gcc.h ****     else if (val < min)
 718:Drivers/CMSIS/Include/cmsis_gcc.h ****     {
 719:Drivers/CMSIS/Include/cmsis_gcc.h ****       return min;
 720:Drivers/CMSIS/Include/cmsis_gcc.h ****     }
 721:Drivers/CMSIS/Include/cmsis_gcc.h ****   }
 722:Drivers/CMSIS/Include/cmsis_gcc.h ****   return val;
 723:Drivers/CMSIS/Include/cmsis_gcc.h **** }
 724:Drivers/CMSIS/Include/cmsis_gcc.h **** 
 725:Drivers/CMSIS/Include/cmsis_gcc.h **** /**
 726:Drivers/CMSIS/Include/cmsis_gcc.h ****   \brief   Unsigned Saturate
 727:Drivers/CMSIS/Include/cmsis_gcc.h ****   \details Saturates an unsigned value.
 728:Drivers/CMSIS/Include/cmsis_gcc.h ****   \param [in]  value  Value to be saturated
 729:Drivers/CMSIS/Include/cmsis_gcc.h ****   \param [in]    sat  Bit position to saturate to (0..31)
 730:Drivers/CMSIS/Include/cmsis_gcc.h ****   \return             Saturated value
 731:Drivers/CMSIS/Include/cmsis_gcc.h ****  */
 732:Drivers/CMSIS/Include/cmsis_gcc.h **** __STATIC_FORCEINLINE uint32_t __USAT(int32_t val, uint32_t sat)
 733:Drivers/CMSIS/Include/cmsis_gcc.h **** {
 734:Drivers/CMSIS/Include/cmsis_gcc.h ****   if (sat <= 31U)
 735:Drivers/CMSIS/Include/cmsis_gcc.h ****   {
 736:Drivers/CMSIS/Include/cmsis_gcc.h ****     const uint32_t max = ((1U << sat) - 1U);
 737:Drivers/CMSIS/Include/cmsis_gcc.h ****     if (val > (int32_t)max)
 738:Drivers/CMSIS/Include/cmsis_gcc.h ****     {
 739:Drivers/CMSIS/Include/cmsis_gcc.h ****       return max;
 740:Drivers/CMSIS/Include/cmsis_gcc.h ****     }
 741:Drivers/CMSIS/Include/cmsis_gcc.h ****     else if (val < 0)
 742:Drivers/CMSIS/Include/cmsis_gcc.h ****     {
ARM GAS  /tmp/ccgGExpA.s 			page 60


 743:Drivers/CMSIS/Include/cmsis_gcc.h ****       return 0U;
 744:Drivers/CMSIS/Include/cmsis_gcc.h ****     }
 745:Drivers/CMSIS/Include/cmsis_gcc.h ****   }
 746:Drivers/CMSIS/Include/cmsis_gcc.h ****   return (uint32_t)val;
 747:Drivers/CMSIS/Include/cmsis_gcc.h **** }
 748:Drivers/CMSIS/Include/cmsis_gcc.h **** 
 749:Drivers/CMSIS/Include/cmsis_gcc.h **** #endif /* ((defined (__ARM_ARCH_7M__      ) && (__ARM_ARCH_7M__      == 1)) || \
 750:Drivers/CMSIS/Include/cmsis_gcc.h ****            (defined (__ARM_ARCH_7EM__     ) && (__ARM_ARCH_7EM__     == 1)) || \
 751:Drivers/CMSIS/Include/cmsis_gcc.h ****            (defined (__ARM_ARCH_8M_MAIN__ ) && (__ARM_ARCH_8M_MAIN__ == 1))    ) */
 752:Drivers/CMSIS/Include/cmsis_gcc.h **** 
 753:Drivers/CMSIS/Include/cmsis_gcc.h **** 
 754:Drivers/CMSIS/Include/cmsis_gcc.h **** #if ((defined (__ARM_ARCH_8M_MAIN__ ) && (__ARM_ARCH_8M_MAIN__ == 1)) || \
 755:Drivers/CMSIS/Include/cmsis_gcc.h ****      (defined (__ARM_ARCH_8M_BASE__ ) && (__ARM_ARCH_8M_BASE__ == 1))    )
 756:Drivers/CMSIS/Include/cmsis_gcc.h **** /**
 757:Drivers/CMSIS/Include/cmsis_gcc.h ****   \brief   Load-Acquire (8 bit)
 758:Drivers/CMSIS/Include/cmsis_gcc.h ****   \details Executes a LDAB instruction for 8 bit value.
 759:Drivers/CMSIS/Include/cmsis_gcc.h ****   \param [in]    ptr  Pointer to data
 760:Drivers/CMSIS/Include/cmsis_gcc.h ****   \return             value of type uint8_t at (*ptr)
 761:Drivers/CMSIS/Include/cmsis_gcc.h ****  */
 762:Drivers/CMSIS/Include/cmsis_gcc.h **** __STATIC_FORCEINLINE uint8_t __LDAB(volatile uint8_t *ptr)
 763:Drivers/CMSIS/Include/cmsis_gcc.h **** {
 764:Drivers/CMSIS/Include/cmsis_gcc.h ****     uint32_t result;
 765:Drivers/CMSIS/Include/cmsis_gcc.h **** 
 766:Drivers/CMSIS/Include/cmsis_gcc.h ****    __ASM volatile ("ldab %0, %1" : "=r" (result) : "Q" (*ptr) : "memory" );
 767:Drivers/CMSIS/Include/cmsis_gcc.h ****    return ((uint8_t) result);
 768:Drivers/CMSIS/Include/cmsis_gcc.h **** }
 769:Drivers/CMSIS/Include/cmsis_gcc.h **** 
 770:Drivers/CMSIS/Include/cmsis_gcc.h **** 
 771:Drivers/CMSIS/Include/cmsis_gcc.h **** /**
 772:Drivers/CMSIS/Include/cmsis_gcc.h ****   \brief   Load-Acquire (16 bit)
 773:Drivers/CMSIS/Include/cmsis_gcc.h ****   \details Executes a LDAH instruction for 16 bit values.
 774:Drivers/CMSIS/Include/cmsis_gcc.h ****   \param [in]    ptr  Pointer to data
 775:Drivers/CMSIS/Include/cmsis_gcc.h ****   \return        value of type uint16_t at (*ptr)
 776:Drivers/CMSIS/Include/cmsis_gcc.h ****  */
 777:Drivers/CMSIS/Include/cmsis_gcc.h **** __STATIC_FORCEINLINE uint16_t __LDAH(volatile uint16_t *ptr)
 778:Drivers/CMSIS/Include/cmsis_gcc.h **** {
 779:Drivers/CMSIS/Include/cmsis_gcc.h ****     uint32_t result;
 780:Drivers/CMSIS/Include/cmsis_gcc.h **** 
 781:Drivers/CMSIS/Include/cmsis_gcc.h ****    __ASM volatile ("ldah %0, %1" : "=r" (result) : "Q" (*ptr) : "memory" );
 782:Drivers/CMSIS/Include/cmsis_gcc.h ****    return ((uint16_t) result);
 783:Drivers/CMSIS/Include/cmsis_gcc.h **** }
 784:Drivers/CMSIS/Include/cmsis_gcc.h **** 
 785:Drivers/CMSIS/Include/cmsis_gcc.h **** 
 786:Drivers/CMSIS/Include/cmsis_gcc.h **** /**
 787:Drivers/CMSIS/Include/cmsis_gcc.h ****   \brief   Load-Acquire (32 bit)
 788:Drivers/CMSIS/Include/cmsis_gcc.h ****   \details Executes a LDA instruction for 32 bit values.
 789:Drivers/CMSIS/Include/cmsis_gcc.h ****   \param [in]    ptr  Pointer to data
 790:Drivers/CMSIS/Include/cmsis_gcc.h ****   \return        value of type uint32_t at (*ptr)
 791:Drivers/CMSIS/Include/cmsis_gcc.h ****  */
 792:Drivers/CMSIS/Include/cmsis_gcc.h **** __STATIC_FORCEINLINE uint32_t __LDA(volatile uint32_t *ptr)
 793:Drivers/CMSIS/Include/cmsis_gcc.h **** {
 794:Drivers/CMSIS/Include/cmsis_gcc.h ****     uint32_t result;
 795:Drivers/CMSIS/Include/cmsis_gcc.h **** 
 796:Drivers/CMSIS/Include/cmsis_gcc.h ****    __ASM volatile ("lda %0, %1" : "=r" (result) : "Q" (*ptr) : "memory" );
 797:Drivers/CMSIS/Include/cmsis_gcc.h ****    return(result);
 798:Drivers/CMSIS/Include/cmsis_gcc.h **** }
 799:Drivers/CMSIS/Include/cmsis_gcc.h **** 
ARM GAS  /tmp/ccgGExpA.s 			page 61


 800:Drivers/CMSIS/Include/cmsis_gcc.h **** 
 801:Drivers/CMSIS/Include/cmsis_gcc.h **** /**
 802:Drivers/CMSIS/Include/cmsis_gcc.h ****   \brief   Store-Release (8 bit)
 803:Drivers/CMSIS/Include/cmsis_gcc.h ****   \details Executes a STLB instruction for 8 bit values.
 804:Drivers/CMSIS/Include/cmsis_gcc.h ****   \param [in]  value  Value to store
 805:Drivers/CMSIS/Include/cmsis_gcc.h ****   \param [in]    ptr  Pointer to location
 806:Drivers/CMSIS/Include/cmsis_gcc.h ****  */
 807:Drivers/CMSIS/Include/cmsis_gcc.h **** __STATIC_FORCEINLINE void __STLB(uint8_t value, volatile uint8_t *ptr)
 808:Drivers/CMSIS/Include/cmsis_gcc.h **** {
 809:Drivers/CMSIS/Include/cmsis_gcc.h ****    __ASM volatile ("stlb %1, %0" : "=Q" (*ptr) : "r" ((uint32_t)value) : "memory" );
 810:Drivers/CMSIS/Include/cmsis_gcc.h **** }
 811:Drivers/CMSIS/Include/cmsis_gcc.h **** 
 812:Drivers/CMSIS/Include/cmsis_gcc.h **** 
 813:Drivers/CMSIS/Include/cmsis_gcc.h **** /**
 814:Drivers/CMSIS/Include/cmsis_gcc.h ****   \brief   Store-Release (16 bit)
 815:Drivers/CMSIS/Include/cmsis_gcc.h ****   \details Executes a STLH instruction for 16 bit values.
 816:Drivers/CMSIS/Include/cmsis_gcc.h ****   \param [in]  value  Value to store
 817:Drivers/CMSIS/Include/cmsis_gcc.h ****   \param [in]    ptr  Pointer to location
 818:Drivers/CMSIS/Include/cmsis_gcc.h ****  */
 819:Drivers/CMSIS/Include/cmsis_gcc.h **** __STATIC_FORCEINLINE void __STLH(uint16_t value, volatile uint16_t *ptr)
 820:Drivers/CMSIS/Include/cmsis_gcc.h **** {
 821:Drivers/CMSIS/Include/cmsis_gcc.h ****    __ASM volatile ("stlh %1, %0" : "=Q" (*ptr) : "r" ((uint32_t)value) : "memory" );
 822:Drivers/CMSIS/Include/cmsis_gcc.h **** }
 823:Drivers/CMSIS/Include/cmsis_gcc.h **** 
 824:Drivers/CMSIS/Include/cmsis_gcc.h **** 
 825:Drivers/CMSIS/Include/cmsis_gcc.h **** /**
 826:Drivers/CMSIS/Include/cmsis_gcc.h ****   \brief   Store-Release (32 bit)
 827:Drivers/CMSIS/Include/cmsis_gcc.h ****   \details Executes a STL instruction for 32 bit values.
 828:Drivers/CMSIS/Include/cmsis_gcc.h ****   \param [in]  value  Value to store
 829:Drivers/CMSIS/Include/cmsis_gcc.h ****   \param [in]    ptr  Pointer to location
 830:Drivers/CMSIS/Include/cmsis_gcc.h ****  */
 831:Drivers/CMSIS/Include/cmsis_gcc.h **** __STATIC_FORCEINLINE void __STL(uint32_t value, volatile uint32_t *ptr)
 832:Drivers/CMSIS/Include/cmsis_gcc.h **** {
 833:Drivers/CMSIS/Include/cmsis_gcc.h ****    __ASM volatile ("stl %1, %0" : "=Q" (*ptr) : "r" ((uint32_t)value) : "memory" );
 834:Drivers/CMSIS/Include/cmsis_gcc.h **** }
 835:Drivers/CMSIS/Include/cmsis_gcc.h **** 
 836:Drivers/CMSIS/Include/cmsis_gcc.h **** 
 837:Drivers/CMSIS/Include/cmsis_gcc.h **** /**
 838:Drivers/CMSIS/Include/cmsis_gcc.h ****   \brief   Load-Acquire Exclusive (8 bit)
 839:Drivers/CMSIS/Include/cmsis_gcc.h ****   \details Executes a LDAB exclusive instruction for 8 bit value.
 840:Drivers/CMSIS/Include/cmsis_gcc.h ****   \param [in]    ptr  Pointer to data
 841:Drivers/CMSIS/Include/cmsis_gcc.h ****   \return             value of type uint8_t at (*ptr)
 842:Drivers/CMSIS/Include/cmsis_gcc.h ****  */
 843:Drivers/CMSIS/Include/cmsis_gcc.h **** __STATIC_FORCEINLINE uint8_t __LDAEXB(volatile uint8_t *ptr)
 844:Drivers/CMSIS/Include/cmsis_gcc.h **** {
 845:Drivers/CMSIS/Include/cmsis_gcc.h ****     uint32_t result;
 846:Drivers/CMSIS/Include/cmsis_gcc.h **** 
 847:Drivers/CMSIS/Include/cmsis_gcc.h ****    __ASM volatile ("ldaexb %0, %1" : "=r" (result) : "Q" (*ptr) : "memory" );
 848:Drivers/CMSIS/Include/cmsis_gcc.h ****    return ((uint8_t) result);
 849:Drivers/CMSIS/Include/cmsis_gcc.h **** }
 850:Drivers/CMSIS/Include/cmsis_gcc.h **** 
 851:Drivers/CMSIS/Include/cmsis_gcc.h **** 
 852:Drivers/CMSIS/Include/cmsis_gcc.h **** /**
 853:Drivers/CMSIS/Include/cmsis_gcc.h ****   \brief   Load-Acquire Exclusive (16 bit)
 854:Drivers/CMSIS/Include/cmsis_gcc.h ****   \details Executes a LDAH exclusive instruction for 16 bit values.
 855:Drivers/CMSIS/Include/cmsis_gcc.h ****   \param [in]    ptr  Pointer to data
 856:Drivers/CMSIS/Include/cmsis_gcc.h ****   \return        value of type uint16_t at (*ptr)
ARM GAS  /tmp/ccgGExpA.s 			page 62


 857:Drivers/CMSIS/Include/cmsis_gcc.h ****  */
 858:Drivers/CMSIS/Include/cmsis_gcc.h **** __STATIC_FORCEINLINE uint16_t __LDAEXH(volatile uint16_t *ptr)
 859:Drivers/CMSIS/Include/cmsis_gcc.h **** {
 860:Drivers/CMSIS/Include/cmsis_gcc.h ****     uint32_t result;
 861:Drivers/CMSIS/Include/cmsis_gcc.h **** 
 862:Drivers/CMSIS/Include/cmsis_gcc.h ****    __ASM volatile ("ldaexh %0, %1" : "=r" (result) : "Q" (*ptr) : "memory" );
 863:Drivers/CMSIS/Include/cmsis_gcc.h ****    return ((uint16_t) result);
 864:Drivers/CMSIS/Include/cmsis_gcc.h **** }
 865:Drivers/CMSIS/Include/cmsis_gcc.h **** 
 866:Drivers/CMSIS/Include/cmsis_gcc.h **** 
 867:Drivers/CMSIS/Include/cmsis_gcc.h **** /**
 868:Drivers/CMSIS/Include/cmsis_gcc.h ****   \brief   Load-Acquire Exclusive (32 bit)
 869:Drivers/CMSIS/Include/cmsis_gcc.h ****   \details Executes a LDA exclusive instruction for 32 bit values.
 870:Drivers/CMSIS/Include/cmsis_gcc.h ****   \param [in]    ptr  Pointer to data
 871:Drivers/CMSIS/Include/cmsis_gcc.h ****   \return        value of type uint32_t at (*ptr)
 872:Drivers/CMSIS/Include/cmsis_gcc.h ****  */
 873:Drivers/CMSIS/Include/cmsis_gcc.h **** __STATIC_FORCEINLINE uint32_t __LDAEX(volatile uint32_t *ptr)
 874:Drivers/CMSIS/Include/cmsis_gcc.h **** {
 875:Drivers/CMSIS/Include/cmsis_gcc.h ****     uint32_t result;
 876:Drivers/CMSIS/Include/cmsis_gcc.h **** 
 877:Drivers/CMSIS/Include/cmsis_gcc.h ****    __ASM volatile ("ldaex %0, %1" : "=r" (result) : "Q" (*ptr) : "memory" );
 878:Drivers/CMSIS/Include/cmsis_gcc.h ****    return(result);
 879:Drivers/CMSIS/Include/cmsis_gcc.h **** }
 880:Drivers/CMSIS/Include/cmsis_gcc.h **** 
 881:Drivers/CMSIS/Include/cmsis_gcc.h **** 
 882:Drivers/CMSIS/Include/cmsis_gcc.h **** /**
 883:Drivers/CMSIS/Include/cmsis_gcc.h ****   \brief   Store-Release Exclusive (8 bit)
 884:Drivers/CMSIS/Include/cmsis_gcc.h ****   \details Executes a STLB exclusive instruction for 8 bit values.
 885:Drivers/CMSIS/Include/cmsis_gcc.h ****   \param [in]  value  Value to store
 886:Drivers/CMSIS/Include/cmsis_gcc.h ****   \param [in]    ptr  Pointer to location
 887:Drivers/CMSIS/Include/cmsis_gcc.h ****   \return          0  Function succeeded
 888:Drivers/CMSIS/Include/cmsis_gcc.h ****   \return          1  Function failed
 889:Drivers/CMSIS/Include/cmsis_gcc.h ****  */
 890:Drivers/CMSIS/Include/cmsis_gcc.h **** __STATIC_FORCEINLINE uint32_t __STLEXB(uint8_t value, volatile uint8_t *ptr)
 891:Drivers/CMSIS/Include/cmsis_gcc.h **** {
 892:Drivers/CMSIS/Include/cmsis_gcc.h ****    uint32_t result;
 893:Drivers/CMSIS/Include/cmsis_gcc.h **** 
 894:Drivers/CMSIS/Include/cmsis_gcc.h ****    __ASM volatile ("stlexb %0, %2, %1" : "=&r" (result), "=Q" (*ptr) : "r" ((uint32_t)value) : "mem
 895:Drivers/CMSIS/Include/cmsis_gcc.h ****    return(result);
 896:Drivers/CMSIS/Include/cmsis_gcc.h **** }
 897:Drivers/CMSIS/Include/cmsis_gcc.h **** 
 898:Drivers/CMSIS/Include/cmsis_gcc.h **** 
 899:Drivers/CMSIS/Include/cmsis_gcc.h **** /**
 900:Drivers/CMSIS/Include/cmsis_gcc.h ****   \brief   Store-Release Exclusive (16 bit)
 901:Drivers/CMSIS/Include/cmsis_gcc.h ****   \details Executes a STLH exclusive instruction for 16 bit values.
 902:Drivers/CMSIS/Include/cmsis_gcc.h ****   \param [in]  value  Value to store
 903:Drivers/CMSIS/Include/cmsis_gcc.h ****   \param [in]    ptr  Pointer to location
 904:Drivers/CMSIS/Include/cmsis_gcc.h ****   \return          0  Function succeeded
 905:Drivers/CMSIS/Include/cmsis_gcc.h ****   \return          1  Function failed
 906:Drivers/CMSIS/Include/cmsis_gcc.h ****  */
 907:Drivers/CMSIS/Include/cmsis_gcc.h **** __STATIC_FORCEINLINE uint32_t __STLEXH(uint16_t value, volatile uint16_t *ptr)
 908:Drivers/CMSIS/Include/cmsis_gcc.h **** {
 909:Drivers/CMSIS/Include/cmsis_gcc.h ****    uint32_t result;
 910:Drivers/CMSIS/Include/cmsis_gcc.h **** 
 911:Drivers/CMSIS/Include/cmsis_gcc.h ****    __ASM volatile ("stlexh %0, %2, %1" : "=&r" (result), "=Q" (*ptr) : "r" ((uint32_t)value) : "mem
 912:Drivers/CMSIS/Include/cmsis_gcc.h ****    return(result);
 913:Drivers/CMSIS/Include/cmsis_gcc.h **** }
ARM GAS  /tmp/ccgGExpA.s 			page 63


 914:Drivers/CMSIS/Include/cmsis_gcc.h **** 
 915:Drivers/CMSIS/Include/cmsis_gcc.h **** 
 916:Drivers/CMSIS/Include/cmsis_gcc.h **** /**
 917:Drivers/CMSIS/Include/cmsis_gcc.h ****   \brief   Store-Release Exclusive (32 bit)
 918:Drivers/CMSIS/Include/cmsis_gcc.h ****   \details Executes a STL exclusive instruction for 32 bit values.
 919:Drivers/CMSIS/Include/cmsis_gcc.h ****   \param [in]  value  Value to store
 920:Drivers/CMSIS/Include/cmsis_gcc.h ****   \param [in]    ptr  Pointer to location
 921:Drivers/CMSIS/Include/cmsis_gcc.h ****   \return          0  Function succeeded
 922:Drivers/CMSIS/Include/cmsis_gcc.h ****   \return          1  Function failed
 923:Drivers/CMSIS/Include/cmsis_gcc.h ****  */
 924:Drivers/CMSIS/Include/cmsis_gcc.h **** __STATIC_FORCEINLINE uint32_t __STLEX(uint32_t value, volatile uint32_t *ptr)
 925:Drivers/CMSIS/Include/cmsis_gcc.h **** {
 926:Drivers/CMSIS/Include/cmsis_gcc.h ****    uint32_t result;
 927:Drivers/CMSIS/Include/cmsis_gcc.h **** 
 928:Drivers/CMSIS/Include/cmsis_gcc.h ****    __ASM volatile ("stlex %0, %2, %1" : "=&r" (result), "=Q" (*ptr) : "r" ((uint32_t)value) : "memo
 929:Drivers/CMSIS/Include/cmsis_gcc.h ****    return(result);
 930:Drivers/CMSIS/Include/cmsis_gcc.h **** }
 931:Drivers/CMSIS/Include/cmsis_gcc.h **** 
 932:Drivers/CMSIS/Include/cmsis_gcc.h **** #endif /* ((defined (__ARM_ARCH_8M_MAIN__ ) && (__ARM_ARCH_8M_MAIN__ == 1)) || \
 933:Drivers/CMSIS/Include/cmsis_gcc.h ****            (defined (__ARM_ARCH_8M_BASE__ ) && (__ARM_ARCH_8M_BASE__ == 1))    ) */
 934:Drivers/CMSIS/Include/cmsis_gcc.h **** 
 935:Drivers/CMSIS/Include/cmsis_gcc.h **** /*@}*/ /* end of group CMSIS_Core_InstructionInterface */
 936:Drivers/CMSIS/Include/cmsis_gcc.h **** 
 937:Drivers/CMSIS/Include/cmsis_gcc.h **** 
 938:Drivers/CMSIS/Include/cmsis_gcc.h **** /* ###########################  Core Function Access  ########################### */
 939:Drivers/CMSIS/Include/cmsis_gcc.h **** /** \ingroup  CMSIS_Core_FunctionInterface
 940:Drivers/CMSIS/Include/cmsis_gcc.h ****     \defgroup CMSIS_Core_RegAccFunctions CMSIS Core Register Access Functions
 941:Drivers/CMSIS/Include/cmsis_gcc.h ****   @{
 942:Drivers/CMSIS/Include/cmsis_gcc.h ****  */
 943:Drivers/CMSIS/Include/cmsis_gcc.h **** 
 944:Drivers/CMSIS/Include/cmsis_gcc.h **** /**
 945:Drivers/CMSIS/Include/cmsis_gcc.h ****   \brief   Enable IRQ Interrupts
 946:Drivers/CMSIS/Include/cmsis_gcc.h ****   \details Enables IRQ interrupts by clearing special-purpose register PRIMASK.
 947:Drivers/CMSIS/Include/cmsis_gcc.h ****            Can only be executed in Privileged modes.
 948:Drivers/CMSIS/Include/cmsis_gcc.h ****  */
 949:Drivers/CMSIS/Include/cmsis_gcc.h **** __STATIC_FORCEINLINE void __enable_irq(void)
 950:Drivers/CMSIS/Include/cmsis_gcc.h **** {
 951:Drivers/CMSIS/Include/cmsis_gcc.h ****   __ASM volatile ("cpsie i" : : : "memory");
 952:Drivers/CMSIS/Include/cmsis_gcc.h **** }
 953:Drivers/CMSIS/Include/cmsis_gcc.h **** 
 954:Drivers/CMSIS/Include/cmsis_gcc.h **** 
 955:Drivers/CMSIS/Include/cmsis_gcc.h **** /**
 956:Drivers/CMSIS/Include/cmsis_gcc.h ****   \brief   Disable IRQ Interrupts
 957:Drivers/CMSIS/Include/cmsis_gcc.h ****   \details Disables IRQ interrupts by setting special-purpose register PRIMASK.
 958:Drivers/CMSIS/Include/cmsis_gcc.h ****            Can only be executed in Privileged modes.
 959:Drivers/CMSIS/Include/cmsis_gcc.h ****  */
 960:Drivers/CMSIS/Include/cmsis_gcc.h **** __STATIC_FORCEINLINE void __disable_irq(void)
 1397              		.loc 2 960 27 view .LVU379
 1398              	.LBB11:
 961:Drivers/CMSIS/Include/cmsis_gcc.h **** {
 962:Drivers/CMSIS/Include/cmsis_gcc.h ****   __ASM volatile ("cpsid i" : : : "memory");
 1399              		.loc 2 962 3 view .LVU380
 1400              		.syntax unified
 1401              	@ 962 "Drivers/CMSIS/Include/cmsis_gcc.h" 1
 1402 0000 72B6     		cpsid i
 1403              	@ 0 "" 2
 1404              		.thumb
ARM GAS  /tmp/ccgGExpA.s 			page 64


 1405              		.syntax unified
 1406              	.L76:
 1407              	.LBE11:
 1408              	.LBE10:
 948:Core/Src/main.c ****   while (1)
 1409              		.loc 1 948 3 discriminator 1 view .LVU381
 949:Core/Src/main.c ****   {
 950:Core/Src/main.c ****   }
 1410              		.loc 1 950 3 discriminator 1 view .LVU382
 948:Core/Src/main.c ****   while (1)
 1411              		.loc 1 948 9 discriminator 1 view .LVU383
 1412 0002 FEE7     		b	.L76
 1413              		.cfi_endproc
 1414              	.LFE265:
 1416              		.section	.text.MX_ADC1_Init,"ax",%progbits
 1417              		.align	1
 1418              		.syntax unified
 1419              		.thumb
 1420              		.thumb_func
 1421              		.fpu fpv4-sp-d16
 1423              	MX_ADC1_Init:
 1424              	.LFB246:
 360:Core/Src/main.c **** 
 1425              		.loc 1 360 1 view -0
 1426              		.cfi_startproc
 1427              		@ args = 0, pretend = 0, frame = 16
 1428              		@ frame_needed = 0, uses_anonymous_args = 0
 1429 0000 00B5     		push	{lr}
 1430              		.cfi_def_cfa_offset 4
 1431              		.cfi_offset 14, -4
 1432 0002 85B0     		sub	sp, sp, #20
 1433              		.cfi_def_cfa_offset 24
 366:Core/Src/main.c **** 
 1434              		.loc 1 366 3 view .LVU385
 366:Core/Src/main.c **** 
 1435              		.loc 1 366 26 is_stmt 0 view .LVU386
 1436 0004 0023     		movs	r3, #0
 1437 0006 0093     		str	r3, [sp]
 1438 0008 0193     		str	r3, [sp, #4]
 1439 000a 0293     		str	r3, [sp, #8]
 1440 000c 0393     		str	r3, [sp, #12]
 374:Core/Src/main.c ****   hadc1.Init.ClockPrescaler = ADC_CLOCK_SYNC_PCLK_DIV4;
 1441              		.loc 1 374 3 is_stmt 1 view .LVU387
 374:Core/Src/main.c ****   hadc1.Init.ClockPrescaler = ADC_CLOCK_SYNC_PCLK_DIV4;
 1442              		.loc 1 374 18 is_stmt 0 view .LVU388
 1443 000e 2548     		ldr	r0, .L89
 1444 0010 254A     		ldr	r2, .L89+4
 1445 0012 0260     		str	r2, [r0]
 375:Core/Src/main.c ****   hadc1.Init.Resolution = ADC_RESOLUTION_12B;
 1446              		.loc 1 375 3 is_stmt 1 view .LVU389
 375:Core/Src/main.c ****   hadc1.Init.Resolution = ADC_RESOLUTION_12B;
 1447              		.loc 1 375 29 is_stmt 0 view .LVU390
 1448 0014 4FF48032 		mov	r2, #65536
 1449 0018 4260     		str	r2, [r0, #4]
 376:Core/Src/main.c ****   hadc1.Init.ScanConvMode = ENABLE;
 1450              		.loc 1 376 3 is_stmt 1 view .LVU391
 376:Core/Src/main.c ****   hadc1.Init.ScanConvMode = ENABLE;
ARM GAS  /tmp/ccgGExpA.s 			page 65


 1451              		.loc 1 376 25 is_stmt 0 view .LVU392
 1452 001a 8360     		str	r3, [r0, #8]
 377:Core/Src/main.c ****   hadc1.Init.ContinuousConvMode = DISABLE;
 1453              		.loc 1 377 3 is_stmt 1 view .LVU393
 377:Core/Src/main.c ****   hadc1.Init.ContinuousConvMode = DISABLE;
 1454              		.loc 1 377 27 is_stmt 0 view .LVU394
 1455 001c 0122     		movs	r2, #1
 1456 001e 0261     		str	r2, [r0, #16]
 378:Core/Src/main.c ****   hadc1.Init.DiscontinuousConvMode = ENABLE;
 1457              		.loc 1 378 3 is_stmt 1 view .LVU395
 378:Core/Src/main.c ****   hadc1.Init.DiscontinuousConvMode = ENABLE;
 1458              		.loc 1 378 33 is_stmt 0 view .LVU396
 1459 0020 0376     		strb	r3, [r0, #24]
 379:Core/Src/main.c ****   hadc1.Init.NbrOfDiscConversion = 1;
 1460              		.loc 1 379 3 is_stmt 1 view .LVU397
 379:Core/Src/main.c ****   hadc1.Init.NbrOfDiscConversion = 1;
 1461              		.loc 1 379 36 is_stmt 0 view .LVU398
 1462 0022 80F82020 		strb	r2, [r0, #32]
 380:Core/Src/main.c ****   hadc1.Init.ExternalTrigConvEdge = ADC_EXTERNALTRIGCONVEDGE_NONE;
 1463              		.loc 1 380 3 is_stmt 1 view .LVU399
 380:Core/Src/main.c ****   hadc1.Init.ExternalTrigConvEdge = ADC_EXTERNALTRIGCONVEDGE_NONE;
 1464              		.loc 1 380 34 is_stmt 0 view .LVU400
 1465 0026 4262     		str	r2, [r0, #36]
 381:Core/Src/main.c ****   hadc1.Init.ExternalTrigConv = ADC_SOFTWARE_START;
 1466              		.loc 1 381 3 is_stmt 1 view .LVU401
 381:Core/Src/main.c ****   hadc1.Init.ExternalTrigConv = ADC_SOFTWARE_START;
 1467              		.loc 1 381 35 is_stmt 0 view .LVU402
 1468 0028 C362     		str	r3, [r0, #44]
 382:Core/Src/main.c ****   hadc1.Init.DataAlign = ADC_DATAALIGN_RIGHT;
 1469              		.loc 1 382 3 is_stmt 1 view .LVU403
 382:Core/Src/main.c ****   hadc1.Init.DataAlign = ADC_DATAALIGN_RIGHT;
 1470              		.loc 1 382 31 is_stmt 0 view .LVU404
 1471 002a 2049     		ldr	r1, .L89+8
 1472 002c 8162     		str	r1, [r0, #40]
 383:Core/Src/main.c ****   hadc1.Init.NbrOfConversion = 4;
 1473              		.loc 1 383 3 is_stmt 1 view .LVU405
 383:Core/Src/main.c ****   hadc1.Init.NbrOfConversion = 4;
 1474              		.loc 1 383 24 is_stmt 0 view .LVU406
 1475 002e C360     		str	r3, [r0, #12]
 384:Core/Src/main.c ****   hadc1.Init.DMAContinuousRequests = DISABLE;
 1476              		.loc 1 384 3 is_stmt 1 view .LVU407
 384:Core/Src/main.c ****   hadc1.Init.DMAContinuousRequests = DISABLE;
 1477              		.loc 1 384 30 is_stmt 0 view .LVU408
 1478 0030 0421     		movs	r1, #4
 1479 0032 C161     		str	r1, [r0, #28]
 385:Core/Src/main.c ****   hadc1.Init.EOCSelection = ADC_EOC_SINGLE_CONV;
 1480              		.loc 1 385 3 is_stmt 1 view .LVU409
 385:Core/Src/main.c ****   hadc1.Init.EOCSelection = ADC_EOC_SINGLE_CONV;
 1481              		.loc 1 385 36 is_stmt 0 view .LVU410
 1482 0034 80F83030 		strb	r3, [r0, #48]
 386:Core/Src/main.c ****   if (HAL_ADC_Init(&hadc1) != HAL_OK)
 1483              		.loc 1 386 3 is_stmt 1 view .LVU411
 386:Core/Src/main.c ****   if (HAL_ADC_Init(&hadc1) != HAL_OK)
 1484              		.loc 1 386 27 is_stmt 0 view .LVU412
 1485 0038 4261     		str	r2, [r0, #20]
 387:Core/Src/main.c ****   {
 1486              		.loc 1 387 3 is_stmt 1 view .LVU413
ARM GAS  /tmp/ccgGExpA.s 			page 66


 387:Core/Src/main.c ****   {
 1487              		.loc 1 387 7 is_stmt 0 view .LVU414
 1488 003a FFF7FEFF 		bl	HAL_ADC_Init
 1489              	.LVL99:
 387:Core/Src/main.c ****   {
 1490              		.loc 1 387 6 view .LVU415
 1491 003e 38BB     		cbnz	r0, .L84
 394:Core/Src/main.c ****   sConfig.Rank = 1;
 1492              		.loc 1 394 3 is_stmt 1 view .LVU416
 394:Core/Src/main.c ****   sConfig.Rank = 1;
 1493              		.loc 1 394 19 is_stmt 0 view .LVU417
 1494 0040 0023     		movs	r3, #0
 1495 0042 0093     		str	r3, [sp]
 395:Core/Src/main.c ****   sConfig.SamplingTime = ADC_SAMPLETIME_3CYCLES;
 1496              		.loc 1 395 3 is_stmt 1 view .LVU418
 395:Core/Src/main.c ****   sConfig.SamplingTime = ADC_SAMPLETIME_3CYCLES;
 1497              		.loc 1 395 16 is_stmt 0 view .LVU419
 1498 0044 0122     		movs	r2, #1
 1499 0046 0192     		str	r2, [sp, #4]
 396:Core/Src/main.c ****   if (HAL_ADC_ConfigChannel(&hadc1, &sConfig) != HAL_OK)
 1500              		.loc 1 396 3 is_stmt 1 view .LVU420
 396:Core/Src/main.c ****   if (HAL_ADC_ConfigChannel(&hadc1, &sConfig) != HAL_OK)
 1501              		.loc 1 396 24 is_stmt 0 view .LVU421
 1502 0048 0293     		str	r3, [sp, #8]
 397:Core/Src/main.c ****   {
 1503              		.loc 1 397 3 is_stmt 1 view .LVU422
 397:Core/Src/main.c ****   {
 1504              		.loc 1 397 7 is_stmt 0 view .LVU423
 1505 004a 6946     		mov	r1, sp
 1506 004c 1548     		ldr	r0, .L89
 1507 004e FFF7FEFF 		bl	HAL_ADC_ConfigChannel
 1508              	.LVL100:
 397:Core/Src/main.c ****   {
 1509              		.loc 1 397 6 view .LVU424
 1510 0052 F8B9     		cbnz	r0, .L85
 404:Core/Src/main.c ****   sConfig.Rank = 2;
 1511              		.loc 1 404 3 is_stmt 1 view .LVU425
 404:Core/Src/main.c ****   sConfig.Rank = 2;
 1512              		.loc 1 404 19 is_stmt 0 view .LVU426
 1513 0054 0123     		movs	r3, #1
 1514 0056 0093     		str	r3, [sp]
 405:Core/Src/main.c ****   if (HAL_ADC_ConfigChannel(&hadc1, &sConfig) != HAL_OK)
 1515              		.loc 1 405 3 is_stmt 1 view .LVU427
 405:Core/Src/main.c ****   if (HAL_ADC_ConfigChannel(&hadc1, &sConfig) != HAL_OK)
 1516              		.loc 1 405 16 is_stmt 0 view .LVU428
 1517 0058 0223     		movs	r3, #2
 1518 005a 0193     		str	r3, [sp, #4]
 406:Core/Src/main.c ****   {
 1519              		.loc 1 406 3 is_stmt 1 view .LVU429
 406:Core/Src/main.c ****   {
 1520              		.loc 1 406 7 is_stmt 0 view .LVU430
 1521 005c 6946     		mov	r1, sp
 1522 005e 1148     		ldr	r0, .L89
 1523 0060 FFF7FEFF 		bl	HAL_ADC_ConfigChannel
 1524              	.LVL101:
 406:Core/Src/main.c ****   {
 1525              		.loc 1 406 6 view .LVU431
ARM GAS  /tmp/ccgGExpA.s 			page 67


 1526 0064 C0B9     		cbnz	r0, .L86
 413:Core/Src/main.c ****   sConfig.Rank = 3;
 1527              		.loc 1 413 3 is_stmt 1 view .LVU432
 413:Core/Src/main.c ****   sConfig.Rank = 3;
 1528              		.loc 1 413 19 is_stmt 0 view .LVU433
 1529 0066 0423     		movs	r3, #4
 1530 0068 0093     		str	r3, [sp]
 414:Core/Src/main.c ****   if (HAL_ADC_ConfigChannel(&hadc1, &sConfig) != HAL_OK)
 1531              		.loc 1 414 3 is_stmt 1 view .LVU434
 414:Core/Src/main.c ****   if (HAL_ADC_ConfigChannel(&hadc1, &sConfig) != HAL_OK)
 1532              		.loc 1 414 16 is_stmt 0 view .LVU435
 1533 006a 0323     		movs	r3, #3
 1534 006c 0193     		str	r3, [sp, #4]
 415:Core/Src/main.c ****   {
 1535              		.loc 1 415 3 is_stmt 1 view .LVU436
 415:Core/Src/main.c ****   {
 1536              		.loc 1 415 7 is_stmt 0 view .LVU437
 1537 006e 6946     		mov	r1, sp
 1538 0070 0C48     		ldr	r0, .L89
 1539 0072 FFF7FEFF 		bl	HAL_ADC_ConfigChannel
 1540              	.LVL102:
 415:Core/Src/main.c ****   {
 1541              		.loc 1 415 6 view .LVU438
 1542 0076 88B9     		cbnz	r0, .L87
 422:Core/Src/main.c ****   sConfig.Rank = 4;
 1543              		.loc 1 422 3 is_stmt 1 view .LVU439
 422:Core/Src/main.c ****   sConfig.Rank = 4;
 1544              		.loc 1 422 19 is_stmt 0 view .LVU440
 1545 0078 0823     		movs	r3, #8
 1546 007a 0093     		str	r3, [sp]
 423:Core/Src/main.c ****   if (HAL_ADC_ConfigChannel(&hadc1, &sConfig) != HAL_OK)
 1547              		.loc 1 423 3 is_stmt 1 view .LVU441
 423:Core/Src/main.c ****   if (HAL_ADC_ConfigChannel(&hadc1, &sConfig) != HAL_OK)
 1548              		.loc 1 423 16 is_stmt 0 view .LVU442
 1549 007c 0423     		movs	r3, #4
 1550 007e 0193     		str	r3, [sp, #4]
 424:Core/Src/main.c ****   {
 1551              		.loc 1 424 3 is_stmt 1 view .LVU443
 424:Core/Src/main.c ****   {
 1552              		.loc 1 424 7 is_stmt 0 view .LVU444
 1553 0080 6946     		mov	r1, sp
 1554 0082 0848     		ldr	r0, .L89
 1555 0084 FFF7FEFF 		bl	HAL_ADC_ConfigChannel
 1556              	.LVL103:
 424:Core/Src/main.c ****   {
 1557              		.loc 1 424 6 view .LVU445
 1558 0088 50B9     		cbnz	r0, .L88
 432:Core/Src/main.c **** 
 1559              		.loc 1 432 1 view .LVU446
 1560 008a 05B0     		add	sp, sp, #20
 1561              		.cfi_remember_state
 1562              		.cfi_def_cfa_offset 4
 1563              		@ sp needed
 1564 008c 5DF804FB 		ldr	pc, [sp], #4
 1565              	.L84:
 1566              		.cfi_restore_state
 389:Core/Src/main.c ****   }
ARM GAS  /tmp/ccgGExpA.s 			page 68


 1567              		.loc 1 389 5 is_stmt 1 view .LVU447
 1568 0090 FFF7FEFF 		bl	Error_Handler
 1569              	.LVL104:
 1570              	.L85:
 399:Core/Src/main.c ****   }
 1571              		.loc 1 399 5 view .LVU448
 1572 0094 FFF7FEFF 		bl	Error_Handler
 1573              	.LVL105:
 1574              	.L86:
 408:Core/Src/main.c ****   }
 1575              		.loc 1 408 5 view .LVU449
 1576 0098 FFF7FEFF 		bl	Error_Handler
 1577              	.LVL106:
 1578              	.L87:
 417:Core/Src/main.c ****   }
 1579              		.loc 1 417 5 view .LVU450
 1580 009c FFF7FEFF 		bl	Error_Handler
 1581              	.LVL107:
 1582              	.L88:
 426:Core/Src/main.c ****   }
 1583              		.loc 1 426 5 view .LVU451
 1584 00a0 FFF7FEFF 		bl	Error_Handler
 1585              	.LVL108:
 1586              	.L90:
 1587              		.align	2
 1588              	.L89:
 1589 00a4 00000000 		.word	.LANCHOR6
 1590 00a8 00200140 		.word	1073815552
 1591 00ac 0100000F 		.word	251658241
 1592              		.cfi_endproc
 1593              	.LFE246:
 1595              		.section	.text.MX_I2C1_Init,"ax",%progbits
 1596              		.align	1
 1597              		.syntax unified
 1598              		.thumb
 1599              		.thumb_func
 1600              		.fpu fpv4-sp-d16
 1602              	MX_I2C1_Init:
 1603              	.LFB247:
 440:Core/Src/main.c **** 
 1604              		.loc 1 440 1 view -0
 1605              		.cfi_startproc
 1606              		@ args = 0, pretend = 0, frame = 0
 1607              		@ frame_needed = 0, uses_anonymous_args = 0
 1608 0000 08B5     		push	{r3, lr}
 1609              		.cfi_def_cfa_offset 8
 1610              		.cfi_offset 3, -8
 1611              		.cfi_offset 14, -4
 449:Core/Src/main.c ****   hi2c1.Init.ClockSpeed = 100000;
 1612              		.loc 1 449 3 view .LVU453
 449:Core/Src/main.c ****   hi2c1.Init.ClockSpeed = 100000;
 1613              		.loc 1 449 18 is_stmt 0 view .LVU454
 1614 0002 0A48     		ldr	r0, .L95
 1615 0004 0A4B     		ldr	r3, .L95+4
 1616 0006 0360     		str	r3, [r0]
 450:Core/Src/main.c ****   hi2c1.Init.DutyCycle = I2C_DUTYCYCLE_2;
 1617              		.loc 1 450 3 is_stmt 1 view .LVU455
ARM GAS  /tmp/ccgGExpA.s 			page 69


 450:Core/Src/main.c ****   hi2c1.Init.DutyCycle = I2C_DUTYCYCLE_2;
 1618              		.loc 1 450 25 is_stmt 0 view .LVU456
 1619 0008 0A4B     		ldr	r3, .L95+8
 1620 000a 4360     		str	r3, [r0, #4]
 451:Core/Src/main.c ****   hi2c1.Init.OwnAddress1 = 0;
 1621              		.loc 1 451 3 is_stmt 1 view .LVU457
 451:Core/Src/main.c ****   hi2c1.Init.OwnAddress1 = 0;
 1622              		.loc 1 451 24 is_stmt 0 view .LVU458
 1623 000c 0023     		movs	r3, #0
 1624 000e 8360     		str	r3, [r0, #8]
 452:Core/Src/main.c ****   hi2c1.Init.AddressingMode = I2C_ADDRESSINGMODE_7BIT;
 1625              		.loc 1 452 3 is_stmt 1 view .LVU459
 452:Core/Src/main.c ****   hi2c1.Init.AddressingMode = I2C_ADDRESSINGMODE_7BIT;
 1626              		.loc 1 452 26 is_stmt 0 view .LVU460
 1627 0010 C360     		str	r3, [r0, #12]
 453:Core/Src/main.c ****   hi2c1.Init.DualAddressMode = I2C_DUALADDRESS_DISABLE;
 1628              		.loc 1 453 3 is_stmt 1 view .LVU461
 453:Core/Src/main.c ****   hi2c1.Init.DualAddressMode = I2C_DUALADDRESS_DISABLE;
 1629              		.loc 1 453 29 is_stmt 0 view .LVU462
 1630 0012 4FF48042 		mov	r2, #16384
 1631 0016 0261     		str	r2, [r0, #16]
 454:Core/Src/main.c ****   hi2c1.Init.OwnAddress2 = 0;
 1632              		.loc 1 454 3 is_stmt 1 view .LVU463
 454:Core/Src/main.c ****   hi2c1.Init.OwnAddress2 = 0;
 1633              		.loc 1 454 30 is_stmt 0 view .LVU464
 1634 0018 4361     		str	r3, [r0, #20]
 455:Core/Src/main.c ****   hi2c1.Init.GeneralCallMode = I2C_GENERALCALL_DISABLE;
 1635              		.loc 1 455 3 is_stmt 1 view .LVU465
 455:Core/Src/main.c ****   hi2c1.Init.GeneralCallMode = I2C_GENERALCALL_DISABLE;
 1636              		.loc 1 455 26 is_stmt 0 view .LVU466
 1637 001a 8361     		str	r3, [r0, #24]
 456:Core/Src/main.c ****   hi2c1.Init.NoStretchMode = I2C_NOSTRETCH_DISABLE;
 1638              		.loc 1 456 3 is_stmt 1 view .LVU467
 456:Core/Src/main.c ****   hi2c1.Init.NoStretchMode = I2C_NOSTRETCH_DISABLE;
 1639              		.loc 1 456 30 is_stmt 0 view .LVU468
 1640 001c C361     		str	r3, [r0, #28]
 457:Core/Src/main.c ****   if (HAL_I2C_Init(&hi2c1) != HAL_OK)
 1641              		.loc 1 457 3 is_stmt 1 view .LVU469
 457:Core/Src/main.c ****   if (HAL_I2C_Init(&hi2c1) != HAL_OK)
 1642              		.loc 1 457 28 is_stmt 0 view .LVU470
 1643 001e 0362     		str	r3, [r0, #32]
 458:Core/Src/main.c ****   {
 1644              		.loc 1 458 3 is_stmt 1 view .LVU471
 458:Core/Src/main.c ****   {
 1645              		.loc 1 458 7 is_stmt 0 view .LVU472
 1646 0020 FFF7FEFF 		bl	HAL_I2C_Init
 1647              	.LVL109:
 458:Core/Src/main.c ****   {
 1648              		.loc 1 458 6 view .LVU473
 1649 0024 00B9     		cbnz	r0, .L94
 466:Core/Src/main.c **** 
 1650              		.loc 1 466 1 view .LVU474
 1651 0026 08BD     		pop	{r3, pc}
 1652              	.L94:
 460:Core/Src/main.c ****   }
 1653              		.loc 1 460 5 is_stmt 1 view .LVU475
 1654 0028 FFF7FEFF 		bl	Error_Handler
ARM GAS  /tmp/ccgGExpA.s 			page 70


 1655              	.LVL110:
 1656              	.L96:
 1657              		.align	2
 1658              	.L95:
 1659 002c 00000000 		.word	.LANCHOR5
 1660 0030 00540040 		.word	1073763328
 1661 0034 A0860100 		.word	100000
 1662              		.cfi_endproc
 1663              	.LFE247:
 1665              		.section	.text.MX_USART2_UART_Init,"ax",%progbits
 1666              		.align	1
 1667              		.syntax unified
 1668              		.thumb
 1669              		.thumb_func
 1670              		.fpu fpv4-sp-d16
 1672              	MX_USART2_UART_Init:
 1673              	.LFB249:
 508:Core/Src/main.c **** 
 1674              		.loc 1 508 1 view -0
 1675              		.cfi_startproc
 1676              		@ args = 0, pretend = 0, frame = 0
 1677              		@ frame_needed = 0, uses_anonymous_args = 0
 1678 0000 08B5     		push	{r3, lr}
 1679              		.cfi_def_cfa_offset 8
 1680              		.cfi_offset 3, -8
 1681              		.cfi_offset 14, -4
 517:Core/Src/main.c ****   huart2.Init.BaudRate = 115200;
 1682              		.loc 1 517 3 view .LVU477
 517:Core/Src/main.c ****   huart2.Init.BaudRate = 115200;
 1683              		.loc 1 517 19 is_stmt 0 view .LVU478
 1684 0002 0A48     		ldr	r0, .L101
 1685 0004 0A4B     		ldr	r3, .L101+4
 1686 0006 0360     		str	r3, [r0]
 518:Core/Src/main.c ****   huart2.Init.WordLength = UART_WORDLENGTH_8B;
 1687              		.loc 1 518 3 is_stmt 1 view .LVU479
 518:Core/Src/main.c ****   huart2.Init.WordLength = UART_WORDLENGTH_8B;
 1688              		.loc 1 518 24 is_stmt 0 view .LVU480
 1689 0008 4FF4E133 		mov	r3, #115200
 1690 000c 4360     		str	r3, [r0, #4]
 519:Core/Src/main.c ****   huart2.Init.StopBits = UART_STOPBITS_1;
 1691              		.loc 1 519 3 is_stmt 1 view .LVU481
 519:Core/Src/main.c ****   huart2.Init.StopBits = UART_STOPBITS_1;
 1692              		.loc 1 519 26 is_stmt 0 view .LVU482
 1693 000e 0023     		movs	r3, #0
 1694 0010 8360     		str	r3, [r0, #8]
 520:Core/Src/main.c ****   huart2.Init.Parity = UART_PARITY_NONE;
 1695              		.loc 1 520 3 is_stmt 1 view .LVU483
 520:Core/Src/main.c ****   huart2.Init.Parity = UART_PARITY_NONE;
 1696              		.loc 1 520 24 is_stmt 0 view .LVU484
 1697 0012 C360     		str	r3, [r0, #12]
 521:Core/Src/main.c ****   huart2.Init.Mode = UART_MODE_TX_RX;
 1698              		.loc 1 521 3 is_stmt 1 view .LVU485
 521:Core/Src/main.c ****   huart2.Init.Mode = UART_MODE_TX_RX;
 1699              		.loc 1 521 22 is_stmt 0 view .LVU486
 1700 0014 0361     		str	r3, [r0, #16]
 522:Core/Src/main.c ****   huart2.Init.HwFlowCtl = UART_HWCONTROL_NONE;
 1701              		.loc 1 522 3 is_stmt 1 view .LVU487
ARM GAS  /tmp/ccgGExpA.s 			page 71


 522:Core/Src/main.c ****   huart2.Init.HwFlowCtl = UART_HWCONTROL_NONE;
 1702              		.loc 1 522 20 is_stmt 0 view .LVU488
 1703 0016 0C22     		movs	r2, #12
 1704 0018 4261     		str	r2, [r0, #20]
 523:Core/Src/main.c ****   huart2.Init.OverSampling = UART_OVERSAMPLING_16;
 1705              		.loc 1 523 3 is_stmt 1 view .LVU489
 523:Core/Src/main.c ****   huart2.Init.OverSampling = UART_OVERSAMPLING_16;
 1706              		.loc 1 523 25 is_stmt 0 view .LVU490
 1707 001a 8361     		str	r3, [r0, #24]
 524:Core/Src/main.c ****   if (HAL_UART_Init(&huart2) != HAL_OK)
 1708              		.loc 1 524 3 is_stmt 1 view .LVU491
 524:Core/Src/main.c ****   if (HAL_UART_Init(&huart2) != HAL_OK)
 1709              		.loc 1 524 28 is_stmt 0 view .LVU492
 1710 001c C361     		str	r3, [r0, #28]
 525:Core/Src/main.c ****   {
 1711              		.loc 1 525 3 is_stmt 1 view .LVU493
 525:Core/Src/main.c ****   {
 1712              		.loc 1 525 7 is_stmt 0 view .LVU494
 1713 001e FFF7FEFF 		bl	HAL_UART_Init
 1714              	.LVL111:
 525:Core/Src/main.c ****   {
 1715              		.loc 1 525 6 view .LVU495
 1716 0022 00B9     		cbnz	r0, .L100
 533:Core/Src/main.c **** 
 1717              		.loc 1 533 1 view .LVU496
 1718 0024 08BD     		pop	{r3, pc}
 1719              	.L100:
 527:Core/Src/main.c ****   }
 1720              		.loc 1 527 5 is_stmt 1 view .LVU497
 1721 0026 FFF7FEFF 		bl	Error_Handler
 1722              	.LVL112:
 1723              	.L102:
 1724 002a 00BF     		.align	2
 1725              	.L101:
 1726 002c 00000000 		.word	.LANCHOR11
 1727 0030 00440040 		.word	1073759232
 1728              		.cfi_endproc
 1729              	.LFE249:
 1731              		.section	.text.MX_I2C2_Init,"ax",%progbits
 1732              		.align	1
 1733              		.syntax unified
 1734              		.thumb
 1735              		.thumb_func
 1736              		.fpu fpv4-sp-d16
 1738              	MX_I2C2_Init:
 1739              	.LFB248:
 474:Core/Src/main.c **** 
 1740              		.loc 1 474 1 view -0
 1741              		.cfi_startproc
 1742              		@ args = 0, pretend = 0, frame = 0
 1743              		@ frame_needed = 0, uses_anonymous_args = 0
 1744 0000 08B5     		push	{r3, lr}
 1745              		.cfi_def_cfa_offset 8
 1746              		.cfi_offset 3, -8
 1747              		.cfi_offset 14, -4
 483:Core/Src/main.c ****   hi2c2.Init.ClockSpeed = 100000;
 1748              		.loc 1 483 3 view .LVU499
ARM GAS  /tmp/ccgGExpA.s 			page 72


 483:Core/Src/main.c ****   hi2c2.Init.ClockSpeed = 100000;
 1749              		.loc 1 483 18 is_stmt 0 view .LVU500
 1750 0002 0A48     		ldr	r0, .L107
 1751 0004 0A4B     		ldr	r3, .L107+4
 1752 0006 0360     		str	r3, [r0]
 484:Core/Src/main.c ****   hi2c2.Init.DutyCycle = I2C_DUTYCYCLE_2;
 1753              		.loc 1 484 3 is_stmt 1 view .LVU501
 484:Core/Src/main.c ****   hi2c2.Init.DutyCycle = I2C_DUTYCYCLE_2;
 1754              		.loc 1 484 25 is_stmt 0 view .LVU502
 1755 0008 0A4B     		ldr	r3, .L107+8
 1756 000a 4360     		str	r3, [r0, #4]
 485:Core/Src/main.c ****   hi2c2.Init.OwnAddress1 = 0;
 1757              		.loc 1 485 3 is_stmt 1 view .LVU503
 485:Core/Src/main.c ****   hi2c2.Init.OwnAddress1 = 0;
 1758              		.loc 1 485 24 is_stmt 0 view .LVU504
 1759 000c 0023     		movs	r3, #0
 1760 000e 8360     		str	r3, [r0, #8]
 486:Core/Src/main.c ****   hi2c2.Init.AddressingMode = I2C_ADDRESSINGMODE_7BIT;
 1761              		.loc 1 486 3 is_stmt 1 view .LVU505
 486:Core/Src/main.c ****   hi2c2.Init.AddressingMode = I2C_ADDRESSINGMODE_7BIT;
 1762              		.loc 1 486 26 is_stmt 0 view .LVU506
 1763 0010 C360     		str	r3, [r0, #12]
 487:Core/Src/main.c ****   hi2c2.Init.DualAddressMode = I2C_DUALADDRESS_DISABLE;
 1764              		.loc 1 487 3 is_stmt 1 view .LVU507
 487:Core/Src/main.c ****   hi2c2.Init.DualAddressMode = I2C_DUALADDRESS_DISABLE;
 1765              		.loc 1 487 29 is_stmt 0 view .LVU508
 1766 0012 4FF48042 		mov	r2, #16384
 1767 0016 0261     		str	r2, [r0, #16]
 488:Core/Src/main.c ****   hi2c2.Init.OwnAddress2 = 0;
 1768              		.loc 1 488 3 is_stmt 1 view .LVU509
 488:Core/Src/main.c ****   hi2c2.Init.OwnAddress2 = 0;
 1769              		.loc 1 488 30 is_stmt 0 view .LVU510
 1770 0018 4361     		str	r3, [r0, #20]
 489:Core/Src/main.c ****   hi2c2.Init.GeneralCallMode = I2C_GENERALCALL_DISABLE;
 1771              		.loc 1 489 3 is_stmt 1 view .LVU511
 489:Core/Src/main.c ****   hi2c2.Init.GeneralCallMode = I2C_GENERALCALL_DISABLE;
 1772              		.loc 1 489 26 is_stmt 0 view .LVU512
 1773 001a 8361     		str	r3, [r0, #24]
 490:Core/Src/main.c ****   hi2c2.Init.NoStretchMode = I2C_NOSTRETCH_DISABLE;
 1774              		.loc 1 490 3 is_stmt 1 view .LVU513
 490:Core/Src/main.c ****   hi2c2.Init.NoStretchMode = I2C_NOSTRETCH_DISABLE;
 1775              		.loc 1 490 30 is_stmt 0 view .LVU514
 1776 001c C361     		str	r3, [r0, #28]
 491:Core/Src/main.c ****   if (HAL_I2C_Init(&hi2c2) != HAL_OK)
 1777              		.loc 1 491 3 is_stmt 1 view .LVU515
 491:Core/Src/main.c ****   if (HAL_I2C_Init(&hi2c2) != HAL_OK)
 1778              		.loc 1 491 28 is_stmt 0 view .LVU516
 1779 001e 0362     		str	r3, [r0, #32]
 492:Core/Src/main.c ****   {
 1780              		.loc 1 492 3 is_stmt 1 view .LVU517
 492:Core/Src/main.c ****   {
 1781              		.loc 1 492 7 is_stmt 0 view .LVU518
 1782 0020 FFF7FEFF 		bl	HAL_I2C_Init
 1783              	.LVL113:
 492:Core/Src/main.c ****   {
 1784              		.loc 1 492 6 view .LVU519
 1785 0024 00B9     		cbnz	r0, .L106
ARM GAS  /tmp/ccgGExpA.s 			page 73


 500:Core/Src/main.c **** 
 1786              		.loc 1 500 1 view .LVU520
 1787 0026 08BD     		pop	{r3, pc}
 1788              	.L106:
 494:Core/Src/main.c ****   }
 1789              		.loc 1 494 5 is_stmt 1 view .LVU521
 1790 0028 FFF7FEFF 		bl	Error_Handler
 1791              	.LVL114:
 1792              	.L108:
 1793              		.align	2
 1794              	.L107:
 1795 002c 00000000 		.word	.LANCHOR12
 1796 0030 00580040 		.word	1073764352
 1797 0034 A0860100 		.word	100000
 1798              		.cfi_endproc
 1799              	.LFE248:
 1801              		.section	.text.SystemClock_Config,"ax",%progbits
 1802              		.align	1
 1803              		.global	SystemClock_Config
 1804              		.syntax unified
 1805              		.thumb
 1806              		.thumb_func
 1807              		.fpu fpv4-sp-d16
 1809              	SystemClock_Config:
 1810              	.LFB245:
 312:Core/Src/main.c ****   RCC_OscInitTypeDef RCC_OscInitStruct = {0};
 1811              		.loc 1 312 1 view -0
 1812              		.cfi_startproc
 1813              		@ args = 0, pretend = 0, frame = 80
 1814              		@ frame_needed = 0, uses_anonymous_args = 0
 1815 0000 00B5     		push	{lr}
 1816              		.cfi_def_cfa_offset 4
 1817              		.cfi_offset 14, -4
 1818 0002 95B0     		sub	sp, sp, #84
 1819              		.cfi_def_cfa_offset 88
 313:Core/Src/main.c ****   RCC_ClkInitTypeDef RCC_ClkInitStruct = {0};
 1820              		.loc 1 313 3 view .LVU523
 313:Core/Src/main.c ****   RCC_ClkInitTypeDef RCC_ClkInitStruct = {0};
 1821              		.loc 1 313 22 is_stmt 0 view .LVU524
 1822 0004 3422     		movs	r2, #52
 1823 0006 0021     		movs	r1, #0
 1824 0008 07A8     		add	r0, sp, #28
 1825 000a FFF7FEFF 		bl	memset
 1826              	.LVL115:
 314:Core/Src/main.c **** 
 1827              		.loc 1 314 3 is_stmt 1 view .LVU525
 314:Core/Src/main.c **** 
 1828              		.loc 1 314 22 is_stmt 0 view .LVU526
 1829 000e 0023     		movs	r3, #0
 1830 0010 0293     		str	r3, [sp, #8]
 1831 0012 0393     		str	r3, [sp, #12]
 1832 0014 0493     		str	r3, [sp, #16]
 1833 0016 0593     		str	r3, [sp, #20]
 1834 0018 0693     		str	r3, [sp, #24]
 318:Core/Src/main.c ****   __HAL_PWR_VOLTAGESCALING_CONFIG(PWR_REGULATOR_VOLTAGE_SCALE3);
 1835              		.loc 1 318 3 is_stmt 1 view .LVU527
 1836              	.LBB12:
ARM GAS  /tmp/ccgGExpA.s 			page 74


 318:Core/Src/main.c ****   __HAL_PWR_VOLTAGESCALING_CONFIG(PWR_REGULATOR_VOLTAGE_SCALE3);
 1837              		.loc 1 318 3 view .LVU528
 1838 001a 0093     		str	r3, [sp]
 318:Core/Src/main.c ****   __HAL_PWR_VOLTAGESCALING_CONFIG(PWR_REGULATOR_VOLTAGE_SCALE3);
 1839              		.loc 1 318 3 view .LVU529
 1840 001c 1F4A     		ldr	r2, .L115
 1841 001e 116C     		ldr	r1, [r2, #64]
 1842 0020 41F08051 		orr	r1, r1, #268435456
 1843 0024 1164     		str	r1, [r2, #64]
 318:Core/Src/main.c ****   __HAL_PWR_VOLTAGESCALING_CONFIG(PWR_REGULATOR_VOLTAGE_SCALE3);
 1844              		.loc 1 318 3 view .LVU530
 1845 0026 126C     		ldr	r2, [r2, #64]
 1846 0028 02F08052 		and	r2, r2, #268435456
 1847 002c 0092     		str	r2, [sp]
 318:Core/Src/main.c ****   __HAL_PWR_VOLTAGESCALING_CONFIG(PWR_REGULATOR_VOLTAGE_SCALE3);
 1848              		.loc 1 318 3 view .LVU531
 1849 002e 009A     		ldr	r2, [sp]
 1850              	.LBE12:
 318:Core/Src/main.c ****   __HAL_PWR_VOLTAGESCALING_CONFIG(PWR_REGULATOR_VOLTAGE_SCALE3);
 1851              		.loc 1 318 3 view .LVU532
 319:Core/Src/main.c **** 
 1852              		.loc 1 319 3 view .LVU533
 1853              	.LBB13:
 319:Core/Src/main.c **** 
 1854              		.loc 1 319 3 view .LVU534
 1855 0030 0193     		str	r3, [sp, #4]
 319:Core/Src/main.c **** 
 1856              		.loc 1 319 3 view .LVU535
 1857 0032 1B49     		ldr	r1, .L115+4
 1858 0034 0A68     		ldr	r2, [r1]
 1859 0036 22F44042 		bic	r2, r2, #49152
 1860 003a 42F48042 		orr	r2, r2, #16384
 1861 003e 0A60     		str	r2, [r1]
 319:Core/Src/main.c **** 
 1862              		.loc 1 319 3 view .LVU536
 1863 0040 0A68     		ldr	r2, [r1]
 1864 0042 02F44042 		and	r2, r2, #49152
 1865 0046 0192     		str	r2, [sp, #4]
 319:Core/Src/main.c **** 
 1866              		.loc 1 319 3 view .LVU537
 1867 0048 019A     		ldr	r2, [sp, #4]
 1868              	.LBE13:
 319:Core/Src/main.c **** 
 1869              		.loc 1 319 3 view .LVU538
 324:Core/Src/main.c ****   RCC_OscInitStruct.HSIState = RCC_HSI_ON;
 1870              		.loc 1 324 3 view .LVU539
 324:Core/Src/main.c ****   RCC_OscInitStruct.HSIState = RCC_HSI_ON;
 1871              		.loc 1 324 36 is_stmt 0 view .LVU540
 1872 004a 0222     		movs	r2, #2
 1873 004c 0792     		str	r2, [sp, #28]
 325:Core/Src/main.c ****   RCC_OscInitStruct.HSICalibrationValue = RCC_HSICALIBRATION_DEFAULT;
 1874              		.loc 1 325 3 is_stmt 1 view .LVU541
 325:Core/Src/main.c ****   RCC_OscInitStruct.HSICalibrationValue = RCC_HSICALIBRATION_DEFAULT;
 1875              		.loc 1 325 30 is_stmt 0 view .LVU542
 1876 004e 0121     		movs	r1, #1
 1877 0050 0A91     		str	r1, [sp, #40]
 326:Core/Src/main.c ****   RCC_OscInitStruct.PLL.PLLState = RCC_PLL_ON;
ARM GAS  /tmp/ccgGExpA.s 			page 75


 1878              		.loc 1 326 3 is_stmt 1 view .LVU543
 326:Core/Src/main.c ****   RCC_OscInitStruct.PLL.PLLState = RCC_PLL_ON;
 1879              		.loc 1 326 41 is_stmt 0 view .LVU544
 1880 0052 1021     		movs	r1, #16
 1881 0054 0B91     		str	r1, [sp, #44]
 327:Core/Src/main.c ****   RCC_OscInitStruct.PLL.PLLSource = RCC_PLLSOURCE_HSI;
 1882              		.loc 1 327 3 is_stmt 1 view .LVU545
 327:Core/Src/main.c ****   RCC_OscInitStruct.PLL.PLLSource = RCC_PLLSOURCE_HSI;
 1883              		.loc 1 327 34 is_stmt 0 view .LVU546
 1884 0056 0D92     		str	r2, [sp, #52]
 328:Core/Src/main.c ****   RCC_OscInitStruct.PLL.PLLM = 16;
 1885              		.loc 1 328 3 is_stmt 1 view .LVU547
 328:Core/Src/main.c ****   RCC_OscInitStruct.PLL.PLLM = 16;
 1886              		.loc 1 328 35 is_stmt 0 view .LVU548
 1887 0058 0E93     		str	r3, [sp, #56]
 329:Core/Src/main.c ****   RCC_OscInitStruct.PLL.PLLN = 336;
 1888              		.loc 1 329 3 is_stmt 1 view .LVU549
 329:Core/Src/main.c ****   RCC_OscInitStruct.PLL.PLLN = 336;
 1889              		.loc 1 329 30 is_stmt 0 view .LVU550
 1890 005a 0F91     		str	r1, [sp, #60]
 330:Core/Src/main.c ****   RCC_OscInitStruct.PLL.PLLP = RCC_PLLP_DIV4;
 1891              		.loc 1 330 3 is_stmt 1 view .LVU551
 330:Core/Src/main.c ****   RCC_OscInitStruct.PLL.PLLP = RCC_PLLP_DIV4;
 1892              		.loc 1 330 30 is_stmt 0 view .LVU552
 1893 005c 4FF4A873 		mov	r3, #336
 1894 0060 1093     		str	r3, [sp, #64]
 331:Core/Src/main.c ****   RCC_OscInitStruct.PLL.PLLQ = 2;
 1895              		.loc 1 331 3 is_stmt 1 view .LVU553
 331:Core/Src/main.c ****   RCC_OscInitStruct.PLL.PLLQ = 2;
 1896              		.loc 1 331 30 is_stmt 0 view .LVU554
 1897 0062 0423     		movs	r3, #4
 1898 0064 1193     		str	r3, [sp, #68]
 332:Core/Src/main.c ****   RCC_OscInitStruct.PLL.PLLR = 2;
 1899              		.loc 1 332 3 is_stmt 1 view .LVU555
 332:Core/Src/main.c ****   RCC_OscInitStruct.PLL.PLLR = 2;
 1900              		.loc 1 332 30 is_stmt 0 view .LVU556
 1901 0066 1292     		str	r2, [sp, #72]
 333:Core/Src/main.c ****   if (HAL_RCC_OscConfig(&RCC_OscInitStruct) != HAL_OK)
 1902              		.loc 1 333 3 is_stmt 1 view .LVU557
 333:Core/Src/main.c ****   if (HAL_RCC_OscConfig(&RCC_OscInitStruct) != HAL_OK)
 1903              		.loc 1 333 30 is_stmt 0 view .LVU558
 1904 0068 1392     		str	r2, [sp, #76]
 334:Core/Src/main.c ****   {
 1905              		.loc 1 334 3 is_stmt 1 view .LVU559
 334:Core/Src/main.c ****   {
 1906              		.loc 1 334 7 is_stmt 0 view .LVU560
 1907 006a 07A8     		add	r0, sp, #28
 1908 006c FFF7FEFF 		bl	HAL_RCC_OscConfig
 1909              	.LVL116:
 334:Core/Src/main.c ****   {
 1910              		.loc 1 334 6 view .LVU561
 1911 0070 80B9     		cbnz	r0, .L113
 341:Core/Src/main.c ****                               |RCC_CLOCKTYPE_PCLK1|RCC_CLOCKTYPE_PCLK2;
 1912              		.loc 1 341 3 is_stmt 1 view .LVU562
 341:Core/Src/main.c ****                               |RCC_CLOCKTYPE_PCLK1|RCC_CLOCKTYPE_PCLK2;
 1913              		.loc 1 341 31 is_stmt 0 view .LVU563
 1914 0072 0F23     		movs	r3, #15
ARM GAS  /tmp/ccgGExpA.s 			page 76


 1915 0074 0293     		str	r3, [sp, #8]
 343:Core/Src/main.c ****   RCC_ClkInitStruct.AHBCLKDivider = RCC_SYSCLK_DIV1;
 1916              		.loc 1 343 3 is_stmt 1 view .LVU564
 343:Core/Src/main.c ****   RCC_ClkInitStruct.AHBCLKDivider = RCC_SYSCLK_DIV1;
 1917              		.loc 1 343 34 is_stmt 0 view .LVU565
 1918 0076 0221     		movs	r1, #2
 1919 0078 0391     		str	r1, [sp, #12]
 344:Core/Src/main.c ****   RCC_ClkInitStruct.APB1CLKDivider = RCC_HCLK_DIV2;
 1920              		.loc 1 344 3 is_stmt 1 view .LVU566
 344:Core/Src/main.c ****   RCC_ClkInitStruct.APB1CLKDivider = RCC_HCLK_DIV2;
 1921              		.loc 1 344 35 is_stmt 0 view .LVU567
 1922 007a 0023     		movs	r3, #0
 1923 007c 0493     		str	r3, [sp, #16]
 345:Core/Src/main.c ****   RCC_ClkInitStruct.APB2CLKDivider = RCC_HCLK_DIV1;
 1924              		.loc 1 345 3 is_stmt 1 view .LVU568
 345:Core/Src/main.c ****   RCC_ClkInitStruct.APB2CLKDivider = RCC_HCLK_DIV1;
 1925              		.loc 1 345 36 is_stmt 0 view .LVU569
 1926 007e 4FF48052 		mov	r2, #4096
 1927 0082 0592     		str	r2, [sp, #20]
 346:Core/Src/main.c **** 
 1928              		.loc 1 346 3 is_stmt 1 view .LVU570
 346:Core/Src/main.c **** 
 1929              		.loc 1 346 36 is_stmt 0 view .LVU571
 1930 0084 0693     		str	r3, [sp, #24]
 348:Core/Src/main.c ****   {
 1931              		.loc 1 348 3 is_stmt 1 view .LVU572
 348:Core/Src/main.c ****   {
 1932              		.loc 1 348 7 is_stmt 0 view .LVU573
 1933 0086 02A8     		add	r0, sp, #8
 1934 0088 FFF7FEFF 		bl	HAL_RCC_ClockConfig
 1935              	.LVL117:
 348:Core/Src/main.c ****   {
 1936              		.loc 1 348 6 view .LVU574
 1937 008c 20B9     		cbnz	r0, .L114
 352:Core/Src/main.c **** 
 1938              		.loc 1 352 1 view .LVU575
 1939 008e 15B0     		add	sp, sp, #84
 1940              		.cfi_remember_state
 1941              		.cfi_def_cfa_offset 4
 1942              		@ sp needed
 1943 0090 5DF804FB 		ldr	pc, [sp], #4
 1944              	.L113:
 1945              		.cfi_restore_state
 336:Core/Src/main.c ****   }
 1946              		.loc 1 336 5 is_stmt 1 view .LVU576
 1947 0094 FFF7FEFF 		bl	Error_Handler
 1948              	.LVL118:
 1949              	.L114:
 350:Core/Src/main.c ****   }
 1950              		.loc 1 350 5 view .LVU577
 1951 0098 FFF7FEFF 		bl	Error_Handler
 1952              	.LVL119:
 1953              	.L116:
 1954              		.align	2
 1955              	.L115:
 1956 009c 00380240 		.word	1073887232
 1957 00a0 00700040 		.word	1073770496
ARM GAS  /tmp/ccgGExpA.s 			page 77


 1958              		.cfi_endproc
 1959              	.LFE245:
 1961              		.section	.text.main,"ax",%progbits
 1962              		.align	1
 1963              		.global	main
 1964              		.syntax unified
 1965              		.thumb
 1966              		.thumb_func
 1967              		.fpu fpv4-sp-d16
 1969              	main:
 1970              	.LFB244:
 192:Core/Src/main.c **** 
 1971              		.loc 1 192 1 view -0
 1972              		.cfi_startproc
 1973              		@ Volatile: function does not return.
 1974              		@ args = 0, pretend = 0, frame = 256
 1975              		@ frame_needed = 0, uses_anonymous_args = 0
 1976 0000 00B5     		push	{lr}
 1977              		.cfi_def_cfa_offset 4
 1978              		.cfi_offset 14, -4
 1979 0002 C1B0     		sub	sp, sp, #260
 1980              		.cfi_def_cfa_offset 264
 201:Core/Src/main.c **** 
 1981              		.loc 1 201 3 view .LVU579
 1982 0004 FFF7FEFF 		bl	HAL_Init
 1983              	.LVL120:
 208:Core/Src/main.c **** 
 1984              		.loc 1 208 3 view .LVU580
 1985 0008 FFF7FEFF 		bl	SystemClock_Config
 1986              	.LVL121:
 215:Core/Src/main.c ****   MX_ADC1_Init();
 1987              		.loc 1 215 3 view .LVU581
 1988 000c FFF7FEFF 		bl	MX_GPIO_Init
 1989              	.LVL122:
 216:Core/Src/main.c ****   MX_I2C1_Init();
 1990              		.loc 1 216 3 view .LVU582
 1991 0010 FFF7FEFF 		bl	MX_ADC1_Init
 1992              	.LVL123:
 217:Core/Src/main.c ****   MX_USART2_UART_Init();
 1993              		.loc 1 217 3 view .LVU583
 1994 0014 FFF7FEFF 		bl	MX_I2C1_Init
 1995              	.LVL124:
 218:Core/Src/main.c ****   MX_I2C2_Init();
 1996              		.loc 1 218 3 view .LVU584
 1997 0018 FFF7FEFF 		bl	MX_USART2_UART_Init
 1998              	.LVL125:
 219:Core/Src/main.c ****   /* USER CODE BEGIN 2 */
 1999              		.loc 1 219 3 view .LVU585
 2000 001c FFF7FEFF 		bl	MX_I2C2_Init
 2001              	.LVL126:
 226:Core/Src/main.c ****   StateMutexHandle = osMutexCreate(osMutex(StateMutex));
 2002              		.loc 1 226 3 view .LVU586
 2003 0020 0025     		movs	r5, #0
 2004 0022 3E95     		str	r5, [sp, #248]
 2005 0024 3F95     		str	r5, [sp, #252]
 227:Core/Src/main.c **** 
 2006              		.loc 1 227 3 view .LVU587
ARM GAS  /tmp/ccgGExpA.s 			page 78


 227:Core/Src/main.c **** 
 2007              		.loc 1 227 22 is_stmt 0 view .LVU588
 2008 0026 3EA8     		add	r0, sp, #248
 2009 0028 FFF7FEFF 		bl	osMutexCreate
 2010              	.LVL127:
 227:Core/Src/main.c **** 
 2011              		.loc 1 227 20 view .LVU589
 2012 002c 534B     		ldr	r3, .L120
 2013 002e 1860     		str	r0, [r3]
 243:Core/Src/main.c ****   MiniBotInputQueueHandle = osMessageCreate(osMessageQ(MiniBotInputQueue), NULL);
 2014              		.loc 1 243 3 is_stmt 1 view .LVU590
 2015 0030 534C     		ldr	r4, .L120+4
 2016 0032 0DF1E80C 		add	ip, sp, #232
 2017 0036 94E80F00 		ldm	r4, {r0, r1, r2, r3}
 2018 003a 8CE80F00 		stm	ip, {r0, r1, r2, r3}
 244:Core/Src/main.c **** 
 2019              		.loc 1 244 3 view .LVU591
 244:Core/Src/main.c **** 
 2020              		.loc 1 244 29 is_stmt 0 view .LVU592
 2021 003e 2946     		mov	r1, r5
 2022 0040 6046     		mov	r0, ip
 2023 0042 FFF7FEFF 		bl	osMessageCreate
 2024              	.LVL128:
 244:Core/Src/main.c **** 
 2025              		.loc 1 244 27 view .LVU593
 2026 0046 4F4B     		ldr	r3, .L120+8
 2027 0048 1860     		str	r0, [r3]
 247:Core/Src/main.c ****   MotorControlQueueHandle = osMessageCreate(osMessageQ(MotorControlQueue), NULL);
 2028              		.loc 1 247 3 is_stmt 1 view .LVU594
 2029 004a 0DF1D80C 		add	ip, sp, #216
 2030 004e 94E80F00 		ldm	r4, {r0, r1, r2, r3}
 2031 0052 8CE80F00 		stm	ip, {r0, r1, r2, r3}
 248:Core/Src/main.c **** 
 2032              		.loc 1 248 3 view .LVU595
 248:Core/Src/main.c **** 
 2033              		.loc 1 248 29 is_stmt 0 view .LVU596
 2034 0056 2946     		mov	r1, r5
 2035 0058 6046     		mov	r0, ip
 2036 005a FFF7FEFF 		bl	osMessageCreate
 2037              	.LVL129:
 248:Core/Src/main.c **** 
 2038              		.loc 1 248 27 view .LVU597
 2039 005e 4A4B     		ldr	r3, .L120+12
 2040 0060 1860     		str	r0, [r3]
 251:Core/Src/main.c ****   LCDPrintQueueHandle = osMessageCreate(osMessageQ(LCDPrintQueue), NULL);
 2041              		.loc 1 251 3 is_stmt 1 view .LVU598
 2042 0062 0DF1C80C 		add	ip, sp, #200
 2043 0066 04F11003 		add	r3, r4, #16
 2044 006a 0FCB     		ldm	r3, {r0, r1, r2, r3}
 2045 006c 8CE80F00 		stm	ip, {r0, r1, r2, r3}
 252:Core/Src/main.c **** 
 2046              		.loc 1 252 3 view .LVU599
 252:Core/Src/main.c **** 
 2047              		.loc 1 252 25 is_stmt 0 view .LVU600
 2048 0070 2946     		mov	r1, r5
 2049 0072 6046     		mov	r0, ip
 2050 0074 FFF7FEFF 		bl	osMessageCreate
ARM GAS  /tmp/ccgGExpA.s 			page 79


 2051              	.LVL130:
 252:Core/Src/main.c **** 
 2052              		.loc 1 252 23 view .LVU601
 2053 0078 444B     		ldr	r3, .L120+16
 2054 007a 1860     		str	r0, [r3]
 260:Core/Src/main.c ****   defaultTaskHandle = osThreadCreate(osThread(defaultTask), NULL);
 2055              		.loc 1 260 3 is_stmt 1 view .LVU602
 2056 007c 0DF1AC0C 		add	ip, sp, #172
 2057 0080 04F1200E 		add	lr, r4, #32
 2058 0084 BEE80F00 		ldmia	lr!, {r0, r1, r2, r3}
 2059 0088 ACE80F00 		stmia	ip!, {r0, r1, r2, r3}
 2060 008c 9EE80700 		ldm	lr, {r0, r1, r2}
 2061 0090 8CE80700 		stm	ip, {r0, r1, r2}
 261:Core/Src/main.c **** 
 2062              		.loc 1 261 3 view .LVU603
 261:Core/Src/main.c **** 
 2063              		.loc 1 261 23 is_stmt 0 view .LVU604
 2064 0094 2946     		mov	r1, r5
 2065 0096 2BA8     		add	r0, sp, #172
 2066 0098 FFF7FEFF 		bl	osThreadCreate
 2067              	.LVL131:
 261:Core/Src/main.c **** 
 2068              		.loc 1 261 21 view .LVU605
 2069 009c 3C4B     		ldr	r3, .L120+20
 2070 009e 1860     		str	r0, [r3]
 264:Core/Src/main.c ****   BlinkLEDTaskHandle = osThreadCreate(osThread(BlinkLEDTask), NULL);
 2071              		.loc 1 264 3 is_stmt 1 view .LVU606
 2072 00a0 0DF1900C 		add	ip, sp, #144
 2073 00a4 04F13C0E 		add	lr, r4, #60
 2074 00a8 BEE80F00 		ldmia	lr!, {r0, r1, r2, r3}
 2075 00ac ACE80F00 		stmia	ip!, {r0, r1, r2, r3}
 2076 00b0 9EE80700 		ldm	lr, {r0, r1, r2}
 2077 00b4 8CE80700 		stm	ip, {r0, r1, r2}
 265:Core/Src/main.c **** 
 2078              		.loc 1 265 3 view .LVU607
 265:Core/Src/main.c **** 
 2079              		.loc 1 265 24 is_stmt 0 view .LVU608
 2080 00b8 2946     		mov	r1, r5
 2081 00ba 24A8     		add	r0, sp, #144
 2082 00bc FFF7FEFF 		bl	osThreadCreate
 2083              	.LVL132:
 265:Core/Src/main.c **** 
 2084              		.loc 1 265 22 view .LVU609
 2085 00c0 344B     		ldr	r3, .L120+24
 2086 00c2 1860     		str	r0, [r3]
 268:Core/Src/main.c ****   MiniBotInputsHandle = osThreadCreate(osThread(MiniBotInputs), NULL);
 2087              		.loc 1 268 3 is_stmt 1 view .LVU610
 2088 00c4 0DF1740C 		add	ip, sp, #116
 2089 00c8 04F1580E 		add	lr, r4, #88
 2090 00cc BEE80F00 		ldmia	lr!, {r0, r1, r2, r3}
 2091 00d0 ACE80F00 		stmia	ip!, {r0, r1, r2, r3}
 2092 00d4 9EE80700 		ldm	lr, {r0, r1, r2}
 2093 00d8 8CE80700 		stm	ip, {r0, r1, r2}
 269:Core/Src/main.c **** 
 2094              		.loc 1 269 3 view .LVU611
 269:Core/Src/main.c **** 
 2095              		.loc 1 269 25 is_stmt 0 view .LVU612
ARM GAS  /tmp/ccgGExpA.s 			page 80


 2096 00dc 2946     		mov	r1, r5
 2097 00de 1DA8     		add	r0, sp, #116
 2098 00e0 FFF7FEFF 		bl	osThreadCreate
 2099              	.LVL133:
 269:Core/Src/main.c **** 
 2100              		.loc 1 269 23 view .LVU613
 2101 00e4 2C4B     		ldr	r3, .L120+28
 2102 00e6 1860     		str	r0, [r3]
 272:Core/Src/main.c ****   ApplicationFSMHandle = osThreadCreate(osThread(ApplicationFSM), NULL);
 2103              		.loc 1 272 3 is_stmt 1 view .LVU614
 2104 00e8 0DF1580C 		add	ip, sp, #88
 2105 00ec 04F1740E 		add	lr, r4, #116
 2106 00f0 BEE80F00 		ldmia	lr!, {r0, r1, r2, r3}
 2107 00f4 ACE80F00 		stmia	ip!, {r0, r1, r2, r3}
 2108 00f8 9EE80700 		ldm	lr, {r0, r1, r2}
 2109 00fc 8CE80700 		stm	ip, {r0, r1, r2}
 273:Core/Src/main.c **** 
 2110              		.loc 1 273 3 view .LVU615
 273:Core/Src/main.c **** 
 2111              		.loc 1 273 26 is_stmt 0 view .LVU616
 2112 0100 2946     		mov	r1, r5
 2113 0102 16A8     		add	r0, sp, #88
 2114 0104 FFF7FEFF 		bl	osThreadCreate
 2115              	.LVL134:
 273:Core/Src/main.c **** 
 2116              		.loc 1 273 24 view .LVU617
 2117 0108 244B     		ldr	r3, .L120+32
 2118 010a 1860     		str	r0, [r3]
 276:Core/Src/main.c ****   EmergencyStopTaHandle = osThreadCreate(osThread(EmergencyStopTa), NULL);
 2119              		.loc 1 276 3 is_stmt 1 view .LVU618
 2120 010c 0DF13C0C 		add	ip, sp, #60
 2121 0110 04F1900E 		add	lr, r4, #144
 2122 0114 BEE80F00 		ldmia	lr!, {r0, r1, r2, r3}
 2123 0118 ACE80F00 		stmia	ip!, {r0, r1, r2, r3}
 2124 011c 9EE80700 		ldm	lr, {r0, r1, r2}
 2125 0120 8CE80700 		stm	ip, {r0, r1, r2}
 277:Core/Src/main.c **** 
 2126              		.loc 1 277 3 view .LVU619
 277:Core/Src/main.c **** 
 2127              		.loc 1 277 27 is_stmt 0 view .LVU620
 2128 0124 2946     		mov	r1, r5
 2129 0126 0FA8     		add	r0, sp, #60
 2130 0128 FFF7FEFF 		bl	osThreadCreate
 2131              	.LVL135:
 277:Core/Src/main.c **** 
 2132              		.loc 1 277 25 view .LVU621
 2133 012c 1C4B     		ldr	r3, .L120+36
 2134 012e 1860     		str	r0, [r3]
 280:Core/Src/main.c ****   MotorControlTasHandle = osThreadCreate(osThread(MotorControlTas), NULL);
 2135              		.loc 1 280 3 is_stmt 1 view .LVU622
 2136 0130 0DF1200C 		add	ip, sp, #32
 2137 0134 04F1AC0E 		add	lr, r4, #172
 2138 0138 BEE80F00 		ldmia	lr!, {r0, r1, r2, r3}
 2139 013c ACE80F00 		stmia	ip!, {r0, r1, r2, r3}
 2140 0140 9EE80700 		ldm	lr, {r0, r1, r2}
 2141 0144 8CE80700 		stm	ip, {r0, r1, r2}
 281:Core/Src/main.c **** 
ARM GAS  /tmp/ccgGExpA.s 			page 81


 2142              		.loc 1 281 3 view .LVU623
 281:Core/Src/main.c **** 
 2143              		.loc 1 281 27 is_stmt 0 view .LVU624
 2144 0148 2946     		mov	r1, r5
 2145 014a 08A8     		add	r0, sp, #32
 2146 014c FFF7FEFF 		bl	osThreadCreate
 2147              	.LVL136:
 281:Core/Src/main.c **** 
 2148              		.loc 1 281 25 view .LVU625
 2149 0150 144B     		ldr	r3, .L120+40
 2150 0152 1860     		str	r0, [r3]
 284:Core/Src/main.c ****   LCDPrintTaskHandle = osThreadCreate(osThread(LCDPrintTask), NULL);
 2151              		.loc 1 284 3 is_stmt 1 view .LVU626
 2152 0154 0DF1040C 		add	ip, sp, #4
 2153 0158 C834     		adds	r4, r4, #200
 2154 015a 0FCC     		ldmia	r4!, {r0, r1, r2, r3}
 2155 015c ACE80F00 		stmia	ip!, {r0, r1, r2, r3}
 2156 0160 94E80700 		ldm	r4, {r0, r1, r2}
 2157 0164 8CE80700 		stm	ip, {r0, r1, r2}
 285:Core/Src/main.c **** 
 2158              		.loc 1 285 3 view .LVU627
 285:Core/Src/main.c **** 
 2159              		.loc 1 285 24 is_stmt 0 view .LVU628
 2160 0168 2946     		mov	r1, r5
 2161 016a 01A8     		add	r0, sp, #4
 2162 016c FFF7FEFF 		bl	osThreadCreate
 2163              	.LVL137:
 285:Core/Src/main.c **** 
 2164              		.loc 1 285 22 view .LVU629
 2165 0170 0D4B     		ldr	r3, .L120+44
 2166 0172 1860     		str	r0, [r3]
 292:Core/Src/main.c **** 
 2167              		.loc 1 292 3 is_stmt 1 view .LVU630
 2168 0174 FFF7FEFF 		bl	osKernelStart
 2169              	.LVL138:
 2170              	.L118:
 298:Core/Src/main.c ****   {
 2171              		.loc 1 298 3 discriminator 1 view .LVU631
 303:Core/Src/main.c ****   /* USER CODE END 3 */
 2172              		.loc 1 303 3 discriminator 1 view .LVU632
 298:Core/Src/main.c ****   {
 2173              		.loc 1 298 9 discriminator 1 view .LVU633
 2174 0178 FEE7     		b	.L118
 2175              	.L121:
 2176 017a 00BF     		.align	2
 2177              	.L120:
 2178 017c 00000000 		.word	.LANCHOR13
 2179 0180 00000000 		.word	.LANCHOR14
 2180 0184 00000000 		.word	.LANCHOR2
 2181 0188 00000000 		.word	.LANCHOR4
 2182 018c 00000000 		.word	.LANCHOR15
 2183 0190 00000000 		.word	.LANCHOR16
 2184 0194 00000000 		.word	.LANCHOR17
 2185 0198 00000000 		.word	.LANCHOR18
 2186 019c 00000000 		.word	.LANCHOR19
 2187 01a0 00000000 		.word	.LANCHOR20
 2188 01a4 00000000 		.word	.LANCHOR21
ARM GAS  /tmp/ccgGExpA.s 			page 82


 2189 01a8 00000000 		.word	.LANCHOR22
 2190              		.cfi_endproc
 2191              	.LFE244:
 2193              		.global	StateMutexHandle
 2194              		.global	LCDPrintQueueHandle
 2195              		.global	MotorControlQueueHandle
 2196              		.global	MiniBotInputQueueHandle
 2197              		.global	LCDPrintTaskHandle
 2198              		.global	MotorControlTasHandle
 2199              		.global	EmergencyStopTaHandle
 2200              		.global	ApplicationFSMHandle
 2201              		.global	MiniBotInputsHandle
 2202              		.global	BlinkLEDTaskHandle
 2203              		.global	defaultTaskHandle
 2204              		.global	huart2
 2205              		.global	hi2c2
 2206              		.global	hi2c1
 2207              		.global	hadc1
 2208              		.global	state
 2209              		.global	tempFailedToPostMessage
 2210              		.global	MotorControl_Qdata_Buf
 2211              		.global	Temp_Qdata_Buf
 2212              		.global	MiniBot_Qdata_Buf
 2213              		.global	PotRawValue
 2214              		.global	Qdata
 2215              		.section	.rodata
 2216              		.align	2
 2217              		.set	.LANCHOR14,. + 0
 2218              	.LC0:
 2219 0000 10000000 		.word	16
 2220 0004 34000000 		.word	52
 2221 0008 00000000 		.word	0
 2222 000c 00000000 		.word	0
 2223              	.LC1:
 2224 0010 10000000 		.word	16
 2225 0014 02000000 		.word	2
 2226 0018 00000000 		.word	0
 2227 001c 00000000 		.word	0
 2228              	.LC16:
 2229 0020 00000000 		.word	.LC2
 2230 0024 00000000 		.word	StartDefaultTask
 2231 0028 0000     		.short	0
 2232 002a 0000     		.space	2
 2233 002c 00000000 		.word	0
 2234 0030 80000000 		.word	128
 2235 0034 00000000 		.word	0
 2236 0038 00000000 		.word	0
 2237              	.LC17:
 2238 003c 0C000000 		.word	.LC4
 2239 0040 00000000 		.word	BlinkLEDTaskEntry
 2240 0044 0000     		.short	0
 2241 0046 0000     		.space	2
 2242 0048 00000000 		.word	0
 2243 004c 80000000 		.word	128
 2244 0050 00000000 		.word	0
 2245 0054 00000000 		.word	0
 2246              	.LC18:
ARM GAS  /tmp/ccgGExpA.s 			page 83


 2247 0058 1C000000 		.word	.LC6
 2248 005c 00000000 		.word	MiniBotInputsEntry
 2249 0060 0000     		.short	0
 2250 0062 0000     		.space	2
 2251 0064 00000000 		.word	0
 2252 0068 00020000 		.word	512
 2253 006c 00000000 		.word	0
 2254 0070 00000000 		.word	0
 2255              	.LC19:
 2256 0074 2C000000 		.word	.LC8
 2257 0078 00000000 		.word	ApplicationFSMEntry
 2258 007c 0200     		.short	2
 2259 007e 0000     		.space	2
 2260 0080 00000000 		.word	0
 2261 0084 00020000 		.word	512
 2262 0088 00000000 		.word	0
 2263 008c 00000000 		.word	0
 2264              	.LC20:
 2265 0090 3C000000 		.word	.LC10
 2266 0094 00000000 		.word	EmergencyStopTaskEntry
 2267 0098 0000     		.short	0
 2268 009a 0000     		.space	2
 2269 009c 00000000 		.word	0
 2270 00a0 80000000 		.word	128
 2271 00a4 00000000 		.word	0
 2272 00a8 00000000 		.word	0
 2273              	.LC21:
 2274 00ac 4C000000 		.word	.LC12
 2275 00b0 00000000 		.word	MotorControlTaskEntry
 2276 00b4 0000     		.short	0
 2277 00b6 0000     		.space	2
 2278 00b8 00000000 		.word	0
 2279 00bc 00020000 		.word	512
 2280 00c0 00000000 		.word	0
 2281 00c4 00000000 		.word	0
 2282              	.LC22:
 2283 00c8 5C000000 		.word	.LC14
 2284 00cc 00000000 		.word	LCDPrintTaskEntry
 2285 00d0 0000     		.short	0
 2286 00d2 0000     		.space	2
 2287 00d4 00000000 		.word	0
 2288 00d8 80000000 		.word	128
 2289 00dc 00000000 		.word	0
 2290 00e0 00000000 		.word	0
 2291              		.section	.bss.ApplicationFSMHandle,"aw",%nobits
 2292              		.align	2
 2293              		.set	.LANCHOR19,. + 0
 2296              	ApplicationFSMHandle:
 2297 0000 00000000 		.space	4
 2298              		.section	.bss.BlinkLEDTaskHandle,"aw",%nobits
 2299              		.align	2
 2300              		.set	.LANCHOR17,. + 0
 2303              	BlinkLEDTaskHandle:
 2304 0000 00000000 		.space	4
 2305              		.section	.bss.EmergencyStopTaHandle,"aw",%nobits
 2306              		.align	2
 2307              		.set	.LANCHOR20,. + 0
ARM GAS  /tmp/ccgGExpA.s 			page 84


 2310              	EmergencyStopTaHandle:
 2311 0000 00000000 		.space	4
 2312              		.section	.bss.LCDPrintQueueHandle,"aw",%nobits
 2313              		.align	2
 2314              		.set	.LANCHOR15,. + 0
 2317              	LCDPrintQueueHandle:
 2318 0000 00000000 		.space	4
 2319              		.section	.bss.LCDPrintTaskHandle,"aw",%nobits
 2320              		.align	2
 2321              		.set	.LANCHOR22,. + 0
 2324              	LCDPrintTaskHandle:
 2325 0000 00000000 		.space	4
 2326              		.section	.bss.MiniBotInputQueueHandle,"aw",%nobits
 2327              		.align	2
 2328              		.set	.LANCHOR2,. + 0
 2331              	MiniBotInputQueueHandle:
 2332 0000 00000000 		.space	4
 2333              		.section	.bss.MiniBotInputsHandle,"aw",%nobits
 2334              		.align	2
 2335              		.set	.LANCHOR18,. + 0
 2338              	MiniBotInputsHandle:
 2339 0000 00000000 		.space	4
 2340              		.section	.bss.MiniBot_Qdata_Buf,"aw",%nobits
 2341              		.align	2
 2342              		.set	.LANCHOR1,. + 0
 2345              	MiniBot_Qdata_Buf:
 2346 0000 00000000 		.space	52
 2346      00000000 
 2346      00000000 
 2346      00000000 
 2346      00000000 
 2347              		.section	.bss.MotorControlQueueHandle,"aw",%nobits
 2348              		.align	2
 2349              		.set	.LANCHOR4,. + 0
 2352              	MotorControlQueueHandle:
 2353 0000 00000000 		.space	4
 2354              		.section	.bss.MotorControlTasHandle,"aw",%nobits
 2355              		.align	2
 2356              		.set	.LANCHOR21,. + 0
 2359              	MotorControlTasHandle:
 2360 0000 00000000 		.space	4
 2361              		.section	.bss.MotorControl_Qdata_Buf,"aw",%nobits
 2362              		.align	2
 2363              		.set	.LANCHOR10,. + 0
 2366              	MotorControl_Qdata_Buf:
 2367 0000 00000000 		.space	52
 2367      00000000 
 2367      00000000 
 2367      00000000 
 2367      00000000 
 2368              		.section	.bss.PotRawValue,"aw",%nobits
 2369              		.align	2
 2370              		.set	.LANCHOR7,. + 0
 2373              	PotRawValue:
 2374 0000 00000000 		.space	16
 2374      00000000 
 2374      00000000 
ARM GAS  /tmp/ccgGExpA.s 			page 85


 2374      00000000 
 2375              		.section	.bss.Qdata,"aw",%nobits
 2376              		.align	2
 2377              		.set	.LANCHOR8,. + 0
 2380              	Qdata:
 2381 0000 00000000 		.space	52
 2381      00000000 
 2381      00000000 
 2381      00000000 
 2381      00000000 
 2382              		.section	.bss.StateMutexHandle,"aw",%nobits
 2383              		.align	2
 2384              		.set	.LANCHOR13,. + 0
 2387              	StateMutexHandle:
 2388 0000 00000000 		.space	4
 2389              		.section	.bss.Temp_Qdata_Buf,"aw",%nobits
 2390              		.align	2
 2391              		.set	.LANCHOR3,. + 0
 2394              	Temp_Qdata_Buf:
 2395 0000 00000000 		.space	52
 2395      00000000 
 2395      00000000 
 2395      00000000 
 2395      00000000 
 2396              		.section	.bss.defaultTaskHandle,"aw",%nobits
 2397              		.align	2
 2398              		.set	.LANCHOR16,. + 0
 2401              	defaultTaskHandle:
 2402 0000 00000000 		.space	4
 2403              		.section	.bss.hadc1,"aw",%nobits
 2404              		.align	2
 2405              		.set	.LANCHOR6,. + 0
 2408              	hadc1:
 2409 0000 00000000 		.space	72
 2409      00000000 
 2409      00000000 
 2409      00000000 
 2409      00000000 
 2410              		.section	.bss.hi2c1,"aw",%nobits
 2411              		.align	2
 2412              		.set	.LANCHOR5,. + 0
 2415              	hi2c1:
 2416 0000 00000000 		.space	84
 2416      00000000 
 2416      00000000 
 2416      00000000 
 2416      00000000 
 2417              		.section	.bss.hi2c2,"aw",%nobits
 2418              		.align	2
 2419              		.set	.LANCHOR12,. + 0
 2422              	hi2c2:
 2423 0000 00000000 		.space	84
 2423      00000000 
 2423      00000000 
 2423      00000000 
 2423      00000000 
 2424              		.section	.bss.huart2,"aw",%nobits
ARM GAS  /tmp/ccgGExpA.s 			page 86


 2425              		.align	2
 2426              		.set	.LANCHOR11,. + 0
 2429              	huart2:
 2430 0000 00000000 		.space	72
 2430      00000000 
 2430      00000000 
 2430      00000000 
 2430      00000000 
 2431              		.section	.bss.state,"aw",%nobits
 2432              		.set	.LANCHOR0,. + 0
 2435              	state:
 2436 0000 00       		.space	1
 2437              		.section	.bss.tempFailedToPostMessage,"aw",%nobits
 2438              		.set	.LANCHOR9,. + 0
 2441              	tempFailedToPostMessage:
 2442 0000 00       		.space	1
 2443              		.text
 2444              	.Letext0:
 2445              		.file 3 "/usr/lib/gcc/arm-none-eabi/10.3.1/include/stdint.h"
 2446              		.file 4 "Drivers/CMSIS/Device/ST/STM32F4xx/Include/stm32f446xx.h"
 2447              		.file 5 "Drivers/CMSIS/Device/ST/STM32F4xx/Include/stm32f4xx.h"
 2448              		.file 6 "Drivers/STM32F4xx_HAL_Driver/Inc/stm32f4xx_hal_def.h"
 2449              		.file 7 "Drivers/STM32F4xx_HAL_Driver/Inc/stm32f4xx_hal_rcc_ex.h"
 2450              		.file 8 "Drivers/STM32F4xx_HAL_Driver/Inc/stm32f4xx_hal_rcc.h"
 2451              		.file 9 "Drivers/STM32F4xx_HAL_Driver/Inc/stm32f4xx_hal_gpio.h"
 2452              		.file 10 "Drivers/STM32F4xx_HAL_Driver/Inc/stm32f4xx_hal_dma.h"
 2453              		.file 11 "Drivers/STM32F4xx_HAL_Driver/Inc/stm32f4xx_hal_adc.h"
 2454              		.file 12 "Drivers/STM32F4xx_HAL_Driver/Inc/stm32f4xx_hal_i2c.h"
 2455              		.file 13 "Drivers/STM32F4xx_HAL_Driver/Inc/stm32f4xx_hal_tim.h"
 2456              		.file 14 "Drivers/STM32F4xx_HAL_Driver/Inc/stm32f4xx_hal_uart.h"
 2457              		.file 15 "Middlewares/Third_Party/FreeRTOS/Source/portable/GCC/ARM_CM4F/portmacro.h"
 2458              		.file 16 "Middlewares/Third_Party/FreeRTOS/Source/include/FreeRTOS.h"
 2459              		.file 17 "Middlewares/Third_Party/FreeRTOS/Source/include/task.h"
 2460              		.file 18 "Middlewares/Third_Party/FreeRTOS/Source/include/queue.h"
 2461              		.file 19 "Middlewares/Third_Party/FreeRTOS/Source/include/semphr.h"
 2462              		.file 20 "Middlewares/Third_Party/FreeRTOS/Source/CMSIS_RTOS/cmsis_os.h"
 2463              		.file 21 "Drivers/STM32F4xx_HAL_Driver/Inc/stm32f4xx_hal.h"
 2464              		.file 22 "Core/Inc/pca9685.h"
 2465              		.file 23 "<built-in>"
ARM GAS  /tmp/ccgGExpA.s 			page 87


DEFINED SYMBOLS
                            *ABS*:0000000000000000 main.c
     /tmp/ccgGExpA.s:15     .rodata.str1.4:0000000000000000 $d
     /tmp/ccgGExpA.s:40     .text.MX_GPIO_Init:0000000000000000 $t
     /tmp/ccgGExpA.s:47     .text.MX_GPIO_Init:0000000000000000 MX_GPIO_Init
     /tmp/ccgGExpA.s:231    .text.MX_GPIO_Init:00000000000000d8 $d
     /tmp/ccgGExpA.s:239    .text.StartDefaultTask:0000000000000000 $t
     /tmp/ccgGExpA.s:246    .text.StartDefaultTask:0000000000000000 StartDefaultTask
     /tmp/ccgGExpA.s:277    .text.StartDefaultTask:0000000000000018 $d
     /tmp/ccgGExpA.s:282    .text.BlinkLEDTaskEntry:0000000000000000 $t
     /tmp/ccgGExpA.s:289    .text.BlinkLEDTaskEntry:0000000000000000 BlinkLEDTaskEntry
     /tmp/ccgGExpA.s:324    .text.BlinkLEDTaskEntry:0000000000000020 $d
     /tmp/ccgGExpA.s:329    .text.LCDPrintTaskEntry:0000000000000000 $t
     /tmp/ccgGExpA.s:336    .text.LCDPrintTaskEntry:0000000000000000 LCDPrintTaskEntry
     /tmp/ccgGExpA.s:362    .text.EmergencyStopTaskEntry:0000000000000000 $t
     /tmp/ccgGExpA.s:369    .text.EmergencyStopTaskEntry:0000000000000000 EmergencyStopTaskEntry
     /tmp/ccgGExpA.s:401    .text.EmergencyStopTaskEntry:0000000000000014 $d
     /tmp/ccgGExpA.s:406    .text.ApplicationFSMEntry:0000000000000000 $t
     /tmp/ccgGExpA.s:413    .text.ApplicationFSMEntry:0000000000000000 ApplicationFSMEntry
     /tmp/ccgGExpA.s:552    .text.ApplicationFSMEntry:00000000000000b8 $d
     /tmp/ccgGExpA.s:561    .text.MiniBotInit:0000000000000000 $t
     /tmp/ccgGExpA.s:568    .text.MiniBotInit:0000000000000000 MiniBotInit
     /tmp/ccgGExpA.s:648    .text.MiniBotInit:0000000000000058 $d
     /tmp/ccgGExpA.s:653    .text.ServoDriverInit:0000000000000000 $t
     /tmp/ccgGExpA.s:660    .text.ServoDriverInit:0000000000000000 ServoDriverInit
     /tmp/ccgGExpA.s:731    .text.ServoDriverInit:0000000000000060 $d
     /tmp/ccgGExpA.s:736    .text.MegaBotInit:0000000000000000 $t
     /tmp/ccgGExpA.s:743    .text.MegaBotInit:0000000000000000 MegaBotInit
     /tmp/ccgGExpA.s:833    .text.QPotDataUpdate:0000000000000000 $t
     /tmp/ccgGExpA.s:840    .text.QPotDataUpdate:0000000000000000 QPotDataUpdate
     /tmp/ccgGExpA.s:922    .text.MiniBotInputsEntry:0000000000000000 $t
     /tmp/ccgGExpA.s:929    .text.MiniBotInputsEntry:0000000000000000 MiniBotInputsEntry
     /tmp/ccgGExpA.s:1065   .text.MiniBotInputsEntry:000000000000009c $d
     /tmp/ccgGExpA.s:1076   .text.MAP:0000000000000000 $t
     /tmp/ccgGExpA.s:1083   .text.MAP:0000000000000000 MAP
     /tmp/ccgGExpA.s:1113   .text.MoveServo:0000000000000000 $t
     /tmp/ccgGExpA.s:1120   .text.MoveServo:0000000000000000 MoveServo
     /tmp/ccgGExpA.s:1265   .text.MotorControlTaskEntry:0000000000000000 $t
     /tmp/ccgGExpA.s:1272   .text.MotorControlTaskEntry:0000000000000000 MotorControlTaskEntry
     /tmp/ccgGExpA.s:1327   .text.MotorControlTaskEntry:0000000000000034 $d
     /tmp/ccgGExpA.s:1333   .text.HAL_TIM_PeriodElapsedCallback:0000000000000000 $t
     /tmp/ccgGExpA.s:1340   .text.HAL_TIM_PeriodElapsedCallback:0000000000000000 HAL_TIM_PeriodElapsedCallback
     /tmp/ccgGExpA.s:1373   .text.HAL_TIM_PeriodElapsedCallback:0000000000000014 $d
     /tmp/ccgGExpA.s:1378   .text.Error_Handler:0000000000000000 $t
     /tmp/ccgGExpA.s:1385   .text.Error_Handler:0000000000000000 Error_Handler
     /tmp/ccgGExpA.s:1417   .text.MX_ADC1_Init:0000000000000000 $t
     /tmp/ccgGExpA.s:1423   .text.MX_ADC1_Init:0000000000000000 MX_ADC1_Init
     /tmp/ccgGExpA.s:1589   .text.MX_ADC1_Init:00000000000000a4 $d
     /tmp/ccgGExpA.s:1596   .text.MX_I2C1_Init:0000000000000000 $t
     /tmp/ccgGExpA.s:1602   .text.MX_I2C1_Init:0000000000000000 MX_I2C1_Init
     /tmp/ccgGExpA.s:1659   .text.MX_I2C1_Init:000000000000002c $d
     /tmp/ccgGExpA.s:1666   .text.MX_USART2_UART_Init:0000000000000000 $t
     /tmp/ccgGExpA.s:1672   .text.MX_USART2_UART_Init:0000000000000000 MX_USART2_UART_Init
     /tmp/ccgGExpA.s:1726   .text.MX_USART2_UART_Init:000000000000002c $d
     /tmp/ccgGExpA.s:1732   .text.MX_I2C2_Init:0000000000000000 $t
     /tmp/ccgGExpA.s:1738   .text.MX_I2C2_Init:0000000000000000 MX_I2C2_Init
     /tmp/ccgGExpA.s:1795   .text.MX_I2C2_Init:000000000000002c $d
ARM GAS  /tmp/ccgGExpA.s 			page 88


     /tmp/ccgGExpA.s:1802   .text.SystemClock_Config:0000000000000000 $t
     /tmp/ccgGExpA.s:1809   .text.SystemClock_Config:0000000000000000 SystemClock_Config
     /tmp/ccgGExpA.s:1956   .text.SystemClock_Config:000000000000009c $d
     /tmp/ccgGExpA.s:1962   .text.main:0000000000000000 $t
     /tmp/ccgGExpA.s:1969   .text.main:0000000000000000 main
     /tmp/ccgGExpA.s:2178   .text.main:000000000000017c $d
     /tmp/ccgGExpA.s:2387   .bss.StateMutexHandle:0000000000000000 StateMutexHandle
     /tmp/ccgGExpA.s:2317   .bss.LCDPrintQueueHandle:0000000000000000 LCDPrintQueueHandle
     /tmp/ccgGExpA.s:2352   .bss.MotorControlQueueHandle:0000000000000000 MotorControlQueueHandle
     /tmp/ccgGExpA.s:2331   .bss.MiniBotInputQueueHandle:0000000000000000 MiniBotInputQueueHandle
     /tmp/ccgGExpA.s:2324   .bss.LCDPrintTaskHandle:0000000000000000 LCDPrintTaskHandle
     /tmp/ccgGExpA.s:2359   .bss.MotorControlTasHandle:0000000000000000 MotorControlTasHandle
     /tmp/ccgGExpA.s:2310   .bss.EmergencyStopTaHandle:0000000000000000 EmergencyStopTaHandle
     /tmp/ccgGExpA.s:2296   .bss.ApplicationFSMHandle:0000000000000000 ApplicationFSMHandle
     /tmp/ccgGExpA.s:2338   .bss.MiniBotInputsHandle:0000000000000000 MiniBotInputsHandle
     /tmp/ccgGExpA.s:2303   .bss.BlinkLEDTaskHandle:0000000000000000 BlinkLEDTaskHandle
     /tmp/ccgGExpA.s:2401   .bss.defaultTaskHandle:0000000000000000 defaultTaskHandle
     /tmp/ccgGExpA.s:2429   .bss.huart2:0000000000000000 huart2
     /tmp/ccgGExpA.s:2422   .bss.hi2c2:0000000000000000 hi2c2
     /tmp/ccgGExpA.s:2415   .bss.hi2c1:0000000000000000 hi2c1
     /tmp/ccgGExpA.s:2408   .bss.hadc1:0000000000000000 hadc1
     /tmp/ccgGExpA.s:2435   .bss.state:0000000000000000 state
     /tmp/ccgGExpA.s:2441   .bss.tempFailedToPostMessage:0000000000000000 tempFailedToPostMessage
     /tmp/ccgGExpA.s:2366   .bss.MotorControl_Qdata_Buf:0000000000000000 MotorControl_Qdata_Buf
     /tmp/ccgGExpA.s:2394   .bss.Temp_Qdata_Buf:0000000000000000 Temp_Qdata_Buf
     /tmp/ccgGExpA.s:2345   .bss.MiniBot_Qdata_Buf:0000000000000000 MiniBot_Qdata_Buf
     /tmp/ccgGExpA.s:2373   .bss.PotRawValue:0000000000000000 PotRawValue
     /tmp/ccgGExpA.s:2380   .bss.Qdata:0000000000000000 Qdata
     /tmp/ccgGExpA.s:2216   .rodata:0000000000000000 $d
     /tmp/ccgGExpA.s:2292   .bss.ApplicationFSMHandle:0000000000000000 $d
     /tmp/ccgGExpA.s:2299   .bss.BlinkLEDTaskHandle:0000000000000000 $d
     /tmp/ccgGExpA.s:2306   .bss.EmergencyStopTaHandle:0000000000000000 $d
     /tmp/ccgGExpA.s:2313   .bss.LCDPrintQueueHandle:0000000000000000 $d
     /tmp/ccgGExpA.s:2320   .bss.LCDPrintTaskHandle:0000000000000000 $d
     /tmp/ccgGExpA.s:2327   .bss.MiniBotInputQueueHandle:0000000000000000 $d
     /tmp/ccgGExpA.s:2334   .bss.MiniBotInputsHandle:0000000000000000 $d
     /tmp/ccgGExpA.s:2341   .bss.MiniBot_Qdata_Buf:0000000000000000 $d
     /tmp/ccgGExpA.s:2348   .bss.MotorControlQueueHandle:0000000000000000 $d
     /tmp/ccgGExpA.s:2355   .bss.MotorControlTasHandle:0000000000000000 $d
     /tmp/ccgGExpA.s:2362   .bss.MotorControl_Qdata_Buf:0000000000000000 $d
     /tmp/ccgGExpA.s:2369   .bss.PotRawValue:0000000000000000 $d
     /tmp/ccgGExpA.s:2376   .bss.Qdata:0000000000000000 $d
     /tmp/ccgGExpA.s:2383   .bss.StateMutexHandle:0000000000000000 $d
     /tmp/ccgGExpA.s:2390   .bss.Temp_Qdata_Buf:0000000000000000 $d
     /tmp/ccgGExpA.s:2397   .bss.defaultTaskHandle:0000000000000000 $d
     /tmp/ccgGExpA.s:2404   .bss.hadc1:0000000000000000 $d
     /tmp/ccgGExpA.s:2411   .bss.hi2c1:0000000000000000 $d
     /tmp/ccgGExpA.s:2418   .bss.hi2c2:0000000000000000 $d
     /tmp/ccgGExpA.s:2425   .bss.huart2:0000000000000000 $d
     /tmp/ccgGExpA.s:2436   .bss.state:0000000000000000 $d
     /tmp/ccgGExpA.s:2442   .bss.tempFailedToPostMessage:0000000000000000 $d

UNDEFINED SYMBOLS
HAL_GPIO_WritePin
HAL_GPIO_Init
osDelay
HAL_GPIO_ReadPin
ARM GAS  /tmp/ccgGExpA.s 			page 89


xQueueReceive
xQueueGenericSend
PCA9685_Init
PCA9685_SetServoAngle
HAL_ADC_Start
HAL_ADC_PollForConversion
HAL_ADC_GetValue
HAL_ADC_Stop
HAL_IncTick
HAL_ADC_Init
HAL_ADC_ConfigChannel
HAL_I2C_Init
HAL_UART_Init
memset
HAL_RCC_OscConfig
HAL_RCC_ClockConfig
HAL_Init
osMutexCreate
osMessageCreate
osThreadCreate
osKernelStart
