ARM GAS  /tmp/cc2svc3e.s 			page 1


   1              		.cpu cortex-m4
   2              		.eabi_attribute 27, 1
   3              		.eabi_attribute 28, 1
   4              		.eabi_attribute 20, 1
   5              		.eabi_attribute 21, 1
   6              		.eabi_attribute 23, 3
   7              		.eabi_attribute 24, 1
   8              		.eabi_attribute 25, 1
   9              		.eabi_attribute 26, 1
  10              		.eabi_attribute 30, 1
  11              		.eabi_attribute 34, 1
  12              		.eabi_attribute 18, 4
  13              		.file	"stm32f4xx_hal_msp.c"
  14              		.text
  15              	.Ltext0:
  16              		.cfi_sections	.debug_frame
  17              		.section	.text.HAL_MspInit,"ax",%progbits
  18              		.align	1
  19              		.global	HAL_MspInit
  20              		.arch armv7e-m
  21              		.syntax unified
  22              		.thumb
  23              		.thumb_func
  24              		.fpu fpv4-sp-d16
  26              	HAL_MspInit:
  27              	.LFB239:
  28              		.file 1 "Core/Src/stm32f4xx_hal_msp.c"
   1:Core/Src/stm32f4xx_hal_msp.c **** /* USER CODE BEGIN Header */
   2:Core/Src/stm32f4xx_hal_msp.c **** /**
   3:Core/Src/stm32f4xx_hal_msp.c ****   ******************************************************************************
   4:Core/Src/stm32f4xx_hal_msp.c ****   * @file         stm32f4xx_hal_msp.c
   5:Core/Src/stm32f4xx_hal_msp.c ****   * @brief        This file provides code for the MSP Initialization
   6:Core/Src/stm32f4xx_hal_msp.c ****   *               and de-Initialization codes.
   7:Core/Src/stm32f4xx_hal_msp.c ****   ******************************************************************************
   8:Core/Src/stm32f4xx_hal_msp.c ****   * @attention
   9:Core/Src/stm32f4xx_hal_msp.c ****   *
  10:Core/Src/stm32f4xx_hal_msp.c ****   * Copyright (c) 2024 STMicroelectronics.
  11:Core/Src/stm32f4xx_hal_msp.c ****   * All rights reserved.
  12:Core/Src/stm32f4xx_hal_msp.c ****   *
  13:Core/Src/stm32f4xx_hal_msp.c ****   * This software is licensed under terms that can be found in the LICENSE file
  14:Core/Src/stm32f4xx_hal_msp.c ****   * in the root directory of this software component.
  15:Core/Src/stm32f4xx_hal_msp.c ****   * If no LICENSE file comes with this software, it is provided AS-IS.
  16:Core/Src/stm32f4xx_hal_msp.c ****   *
  17:Core/Src/stm32f4xx_hal_msp.c ****   ******************************************************************************
  18:Core/Src/stm32f4xx_hal_msp.c ****   */
  19:Core/Src/stm32f4xx_hal_msp.c **** /* USER CODE END Header */
  20:Core/Src/stm32f4xx_hal_msp.c **** 
  21:Core/Src/stm32f4xx_hal_msp.c **** /* Includes ------------------------------------------------------------------*/
  22:Core/Src/stm32f4xx_hal_msp.c **** #include "main.h"
  23:Core/Src/stm32f4xx_hal_msp.c **** /* USER CODE BEGIN Includes */
  24:Core/Src/stm32f4xx_hal_msp.c **** 
  25:Core/Src/stm32f4xx_hal_msp.c **** /* USER CODE END Includes */
  26:Core/Src/stm32f4xx_hal_msp.c **** 
  27:Core/Src/stm32f4xx_hal_msp.c **** /* Private typedef -----------------------------------------------------------*/
  28:Core/Src/stm32f4xx_hal_msp.c **** /* USER CODE BEGIN TD */
  29:Core/Src/stm32f4xx_hal_msp.c **** 
  30:Core/Src/stm32f4xx_hal_msp.c **** /* USER CODE END TD */
ARM GAS  /tmp/cc2svc3e.s 			page 2


  31:Core/Src/stm32f4xx_hal_msp.c **** 
  32:Core/Src/stm32f4xx_hal_msp.c **** /* Private define ------------------------------------------------------------*/
  33:Core/Src/stm32f4xx_hal_msp.c **** /* USER CODE BEGIN Define */
  34:Core/Src/stm32f4xx_hal_msp.c **** 
  35:Core/Src/stm32f4xx_hal_msp.c **** /* USER CODE END Define */
  36:Core/Src/stm32f4xx_hal_msp.c **** 
  37:Core/Src/stm32f4xx_hal_msp.c **** /* Private macro -------------------------------------------------------------*/
  38:Core/Src/stm32f4xx_hal_msp.c **** /* USER CODE BEGIN Macro */
  39:Core/Src/stm32f4xx_hal_msp.c **** 
  40:Core/Src/stm32f4xx_hal_msp.c **** /* USER CODE END Macro */
  41:Core/Src/stm32f4xx_hal_msp.c **** 
  42:Core/Src/stm32f4xx_hal_msp.c **** /* Private variables ---------------------------------------------------------*/
  43:Core/Src/stm32f4xx_hal_msp.c **** /* USER CODE BEGIN PV */
  44:Core/Src/stm32f4xx_hal_msp.c **** 
  45:Core/Src/stm32f4xx_hal_msp.c **** /* USER CODE END PV */
  46:Core/Src/stm32f4xx_hal_msp.c **** 
  47:Core/Src/stm32f4xx_hal_msp.c **** /* Private function prototypes -----------------------------------------------*/
  48:Core/Src/stm32f4xx_hal_msp.c **** /* USER CODE BEGIN PFP */
  49:Core/Src/stm32f4xx_hal_msp.c **** 
  50:Core/Src/stm32f4xx_hal_msp.c **** /* USER CODE END PFP */
  51:Core/Src/stm32f4xx_hal_msp.c **** 
  52:Core/Src/stm32f4xx_hal_msp.c **** /* External functions --------------------------------------------------------*/
  53:Core/Src/stm32f4xx_hal_msp.c **** /* USER CODE BEGIN ExternalFunctions */
  54:Core/Src/stm32f4xx_hal_msp.c **** 
  55:Core/Src/stm32f4xx_hal_msp.c **** /* USER CODE END ExternalFunctions */
  56:Core/Src/stm32f4xx_hal_msp.c **** 
  57:Core/Src/stm32f4xx_hal_msp.c **** /* USER CODE BEGIN 0 */
  58:Core/Src/stm32f4xx_hal_msp.c **** 
  59:Core/Src/stm32f4xx_hal_msp.c **** /* USER CODE END 0 */
  60:Core/Src/stm32f4xx_hal_msp.c **** /**
  61:Core/Src/stm32f4xx_hal_msp.c ****   * Initializes the Global MSP.
  62:Core/Src/stm32f4xx_hal_msp.c ****   */
  63:Core/Src/stm32f4xx_hal_msp.c **** void HAL_MspInit(void)
  64:Core/Src/stm32f4xx_hal_msp.c **** {
  29              		.loc 1 64 1 view -0
  30              		.cfi_startproc
  31              		@ args = 0, pretend = 0, frame = 8
  32              		@ frame_needed = 0, uses_anonymous_args = 0
  33 0000 00B5     		push	{lr}
  34              		.cfi_def_cfa_offset 4
  35              		.cfi_offset 14, -4
  36 0002 83B0     		sub	sp, sp, #12
  37              		.cfi_def_cfa_offset 16
  65:Core/Src/stm32f4xx_hal_msp.c **** 
  66:Core/Src/stm32f4xx_hal_msp.c ****   /* USER CODE BEGIN MspInit 0 */
  67:Core/Src/stm32f4xx_hal_msp.c **** 
  68:Core/Src/stm32f4xx_hal_msp.c ****   /* USER CODE END MspInit 0 */
  69:Core/Src/stm32f4xx_hal_msp.c **** 
  70:Core/Src/stm32f4xx_hal_msp.c ****   __HAL_RCC_SYSCFG_CLK_ENABLE();
  38              		.loc 1 70 3 view .LVU1
  39              	.LBB2:
  40              		.loc 1 70 3 view .LVU2
  41 0004 0022     		movs	r2, #0
  42 0006 0092     		str	r2, [sp]
  43              		.loc 1 70 3 view .LVU3
  44 0008 0D4B     		ldr	r3, .L3
  45 000a 596C     		ldr	r1, [r3, #68]
ARM GAS  /tmp/cc2svc3e.s 			page 3


  46 000c 41F48041 		orr	r1, r1, #16384
  47 0010 5964     		str	r1, [r3, #68]
  48              		.loc 1 70 3 view .LVU4
  49 0012 596C     		ldr	r1, [r3, #68]
  50 0014 01F48041 		and	r1, r1, #16384
  51 0018 0091     		str	r1, [sp]
  52              		.loc 1 70 3 view .LVU5
  53 001a 0099     		ldr	r1, [sp]
  54              	.LBE2:
  55              		.loc 1 70 3 view .LVU6
  71:Core/Src/stm32f4xx_hal_msp.c ****   __HAL_RCC_PWR_CLK_ENABLE();
  56              		.loc 1 71 3 view .LVU7
  57              	.LBB3:
  58              		.loc 1 71 3 view .LVU8
  59 001c 0192     		str	r2, [sp, #4]
  60              		.loc 1 71 3 view .LVU9
  61 001e 196C     		ldr	r1, [r3, #64]
  62 0020 41F08051 		orr	r1, r1, #268435456
  63 0024 1964     		str	r1, [r3, #64]
  64              		.loc 1 71 3 view .LVU10
  65 0026 1B6C     		ldr	r3, [r3, #64]
  66 0028 03F08053 		and	r3, r3, #268435456
  67 002c 0193     		str	r3, [sp, #4]
  68              		.loc 1 71 3 view .LVU11
  69 002e 019B     		ldr	r3, [sp, #4]
  70              	.LBE3:
  71              		.loc 1 71 3 view .LVU12
  72:Core/Src/stm32f4xx_hal_msp.c **** 
  73:Core/Src/stm32f4xx_hal_msp.c ****   /* System interrupt init*/
  74:Core/Src/stm32f4xx_hal_msp.c ****   /* PendSV_IRQn interrupt configuration */
  75:Core/Src/stm32f4xx_hal_msp.c ****   HAL_NVIC_SetPriority(PendSV_IRQn, 15, 0);
  72              		.loc 1 75 3 view .LVU13
  73 0030 0F21     		movs	r1, #15
  74 0032 6FF00100 		mvn	r0, #1
  75 0036 FFF7FEFF 		bl	HAL_NVIC_SetPriority
  76              	.LVL0:
  76:Core/Src/stm32f4xx_hal_msp.c **** 
  77:Core/Src/stm32f4xx_hal_msp.c ****   /* USER CODE BEGIN MspInit 1 */
  78:Core/Src/stm32f4xx_hal_msp.c **** 
  79:Core/Src/stm32f4xx_hal_msp.c ****   /* USER CODE END MspInit 1 */
  80:Core/Src/stm32f4xx_hal_msp.c **** }
  77              		.loc 1 80 1 is_stmt 0 view .LVU14
  78 003a 03B0     		add	sp, sp, #12
  79              		.cfi_def_cfa_offset 4
  80              		@ sp needed
  81 003c 5DF804FB 		ldr	pc, [sp], #4
  82              	.L4:
  83              		.align	2
  84              	.L3:
  85 0040 00380240 		.word	1073887232
  86              		.cfi_endproc
  87              	.LFE239:
  89              		.section	.text.HAL_ADC_MspInit,"ax",%progbits
  90              		.align	1
  91              		.global	HAL_ADC_MspInit
  92              		.syntax unified
  93              		.thumb
ARM GAS  /tmp/cc2svc3e.s 			page 4


  94              		.thumb_func
  95              		.fpu fpv4-sp-d16
  97              	HAL_ADC_MspInit:
  98              	.LVL1:
  99              	.LFB240:
  81:Core/Src/stm32f4xx_hal_msp.c **** 
  82:Core/Src/stm32f4xx_hal_msp.c **** /**
  83:Core/Src/stm32f4xx_hal_msp.c **** * @brief ADC MSP Initialization
  84:Core/Src/stm32f4xx_hal_msp.c **** * This function configures the hardware resources used in this example
  85:Core/Src/stm32f4xx_hal_msp.c **** * @param hadc: ADC handle pointer
  86:Core/Src/stm32f4xx_hal_msp.c **** * @retval None
  87:Core/Src/stm32f4xx_hal_msp.c **** */
  88:Core/Src/stm32f4xx_hal_msp.c **** void HAL_ADC_MspInit(ADC_HandleTypeDef* hadc)
  89:Core/Src/stm32f4xx_hal_msp.c **** {
 100              		.loc 1 89 1 is_stmt 1 view -0
 101              		.cfi_startproc
 102              		@ args = 0, pretend = 0, frame = 32
 103              		@ frame_needed = 0, uses_anonymous_args = 0
 104              		.loc 1 89 1 is_stmt 0 view .LVU16
 105 0000 30B5     		push	{r4, r5, lr}
 106              		.cfi_def_cfa_offset 12
 107              		.cfi_offset 4, -12
 108              		.cfi_offset 5, -8
 109              		.cfi_offset 14, -4
 110 0002 89B0     		sub	sp, sp, #36
 111              		.cfi_def_cfa_offset 48
  90:Core/Src/stm32f4xx_hal_msp.c ****   GPIO_InitTypeDef GPIO_InitStruct = {0};
 112              		.loc 1 90 3 is_stmt 1 view .LVU17
 113              		.loc 1 90 20 is_stmt 0 view .LVU18
 114 0004 0023     		movs	r3, #0
 115 0006 0393     		str	r3, [sp, #12]
 116 0008 0493     		str	r3, [sp, #16]
 117 000a 0593     		str	r3, [sp, #20]
 118 000c 0693     		str	r3, [sp, #24]
 119 000e 0793     		str	r3, [sp, #28]
  91:Core/Src/stm32f4xx_hal_msp.c ****   if(hadc->Instance==ADC1)
 120              		.loc 1 91 3 is_stmt 1 view .LVU19
 121              		.loc 1 91 10 is_stmt 0 view .LVU20
 122 0010 0268     		ldr	r2, [r0]
 123              		.loc 1 91 5 view .LVU21
 124 0012 03F18043 		add	r3, r3, #1073741824
 125 0016 03F59033 		add	r3, r3, #73728
 126 001a 9A42     		cmp	r2, r3
 127 001c 01D0     		beq	.L8
 128              	.LVL2:
 129              	.L5:
  92:Core/Src/stm32f4xx_hal_msp.c ****   {
  93:Core/Src/stm32f4xx_hal_msp.c ****   /* USER CODE BEGIN ADC1_MspInit 0 */
  94:Core/Src/stm32f4xx_hal_msp.c **** 
  95:Core/Src/stm32f4xx_hal_msp.c ****   /* USER CODE END ADC1_MspInit 0 */
  96:Core/Src/stm32f4xx_hal_msp.c ****     /* Peripheral clock enable */
  97:Core/Src/stm32f4xx_hal_msp.c ****     __HAL_RCC_ADC1_CLK_ENABLE();
  98:Core/Src/stm32f4xx_hal_msp.c **** 
  99:Core/Src/stm32f4xx_hal_msp.c ****     __HAL_RCC_GPIOA_CLK_ENABLE();
 100:Core/Src/stm32f4xx_hal_msp.c ****     __HAL_RCC_GPIOB_CLK_ENABLE();
 101:Core/Src/stm32f4xx_hal_msp.c ****     /**ADC1 GPIO Configuration
 102:Core/Src/stm32f4xx_hal_msp.c ****     PA0-WKUP     ------> ADC1_IN0
ARM GAS  /tmp/cc2svc3e.s 			page 5


 103:Core/Src/stm32f4xx_hal_msp.c ****     PA1     ------> ADC1_IN1
 104:Core/Src/stm32f4xx_hal_msp.c ****     PA4     ------> ADC1_IN4
 105:Core/Src/stm32f4xx_hal_msp.c ****     PB0     ------> ADC1_IN8
 106:Core/Src/stm32f4xx_hal_msp.c ****     */
 107:Core/Src/stm32f4xx_hal_msp.c ****     GPIO_InitStruct.Pin = GPIO_PIN_0|GPIO_PIN_1|GPIO_PIN_4;
 108:Core/Src/stm32f4xx_hal_msp.c ****     GPIO_InitStruct.Mode = GPIO_MODE_ANALOG;
 109:Core/Src/stm32f4xx_hal_msp.c ****     GPIO_InitStruct.Pull = GPIO_NOPULL;
 110:Core/Src/stm32f4xx_hal_msp.c ****     HAL_GPIO_Init(GPIOA, &GPIO_InitStruct);
 111:Core/Src/stm32f4xx_hal_msp.c **** 
 112:Core/Src/stm32f4xx_hal_msp.c ****     GPIO_InitStruct.Pin = GPIO_PIN_0;
 113:Core/Src/stm32f4xx_hal_msp.c ****     GPIO_InitStruct.Mode = GPIO_MODE_ANALOG;
 114:Core/Src/stm32f4xx_hal_msp.c ****     GPIO_InitStruct.Pull = GPIO_NOPULL;
 115:Core/Src/stm32f4xx_hal_msp.c ****     HAL_GPIO_Init(GPIOB, &GPIO_InitStruct);
 116:Core/Src/stm32f4xx_hal_msp.c **** 
 117:Core/Src/stm32f4xx_hal_msp.c ****   /* USER CODE BEGIN ADC1_MspInit 1 */
 118:Core/Src/stm32f4xx_hal_msp.c **** 
 119:Core/Src/stm32f4xx_hal_msp.c ****   /* USER CODE END ADC1_MspInit 1 */
 120:Core/Src/stm32f4xx_hal_msp.c ****   }
 121:Core/Src/stm32f4xx_hal_msp.c **** 
 122:Core/Src/stm32f4xx_hal_msp.c **** }
 130              		.loc 1 122 1 view .LVU22
 131 001e 09B0     		add	sp, sp, #36
 132              		.cfi_remember_state
 133              		.cfi_def_cfa_offset 12
 134              		@ sp needed
 135 0020 30BD     		pop	{r4, r5, pc}
 136              	.LVL3:
 137              	.L8:
 138              		.cfi_restore_state
  97:Core/Src/stm32f4xx_hal_msp.c **** 
 139              		.loc 1 97 5 is_stmt 1 view .LVU23
 140              	.LBB4:
  97:Core/Src/stm32f4xx_hal_msp.c **** 
 141              		.loc 1 97 5 view .LVU24
 142 0022 0024     		movs	r4, #0
 143 0024 0094     		str	r4, [sp]
  97:Core/Src/stm32f4xx_hal_msp.c **** 
 144              		.loc 1 97 5 view .LVU25
 145 0026 03F58C33 		add	r3, r3, #71680
 146 002a 5A6C     		ldr	r2, [r3, #68]
 147 002c 42F48072 		orr	r2, r2, #256
 148 0030 5A64     		str	r2, [r3, #68]
  97:Core/Src/stm32f4xx_hal_msp.c **** 
 149              		.loc 1 97 5 view .LVU26
 150 0032 5A6C     		ldr	r2, [r3, #68]
 151 0034 02F48072 		and	r2, r2, #256
 152 0038 0092     		str	r2, [sp]
  97:Core/Src/stm32f4xx_hal_msp.c **** 
 153              		.loc 1 97 5 view .LVU27
 154 003a 009A     		ldr	r2, [sp]
 155              	.LBE4:
  97:Core/Src/stm32f4xx_hal_msp.c **** 
 156              		.loc 1 97 5 view .LVU28
  99:Core/Src/stm32f4xx_hal_msp.c ****     __HAL_RCC_GPIOB_CLK_ENABLE();
 157              		.loc 1 99 5 view .LVU29
 158              	.LBB5:
  99:Core/Src/stm32f4xx_hal_msp.c ****     __HAL_RCC_GPIOB_CLK_ENABLE();
ARM GAS  /tmp/cc2svc3e.s 			page 6


 159              		.loc 1 99 5 view .LVU30
 160 003c 0194     		str	r4, [sp, #4]
  99:Core/Src/stm32f4xx_hal_msp.c ****     __HAL_RCC_GPIOB_CLK_ENABLE();
 161              		.loc 1 99 5 view .LVU31
 162 003e 1A6B     		ldr	r2, [r3, #48]
 163 0040 42F00102 		orr	r2, r2, #1
 164 0044 1A63     		str	r2, [r3, #48]
  99:Core/Src/stm32f4xx_hal_msp.c ****     __HAL_RCC_GPIOB_CLK_ENABLE();
 165              		.loc 1 99 5 view .LVU32
 166 0046 1A6B     		ldr	r2, [r3, #48]
 167 0048 02F00102 		and	r2, r2, #1
 168 004c 0192     		str	r2, [sp, #4]
  99:Core/Src/stm32f4xx_hal_msp.c ****     __HAL_RCC_GPIOB_CLK_ENABLE();
 169              		.loc 1 99 5 view .LVU33
 170 004e 019A     		ldr	r2, [sp, #4]
 171              	.LBE5:
  99:Core/Src/stm32f4xx_hal_msp.c ****     __HAL_RCC_GPIOB_CLK_ENABLE();
 172              		.loc 1 99 5 view .LVU34
 100:Core/Src/stm32f4xx_hal_msp.c ****     /**ADC1 GPIO Configuration
 173              		.loc 1 100 5 view .LVU35
 174              	.LBB6:
 100:Core/Src/stm32f4xx_hal_msp.c ****     /**ADC1 GPIO Configuration
 175              		.loc 1 100 5 view .LVU36
 176 0050 0294     		str	r4, [sp, #8]
 100:Core/Src/stm32f4xx_hal_msp.c ****     /**ADC1 GPIO Configuration
 177              		.loc 1 100 5 view .LVU37
 178 0052 1A6B     		ldr	r2, [r3, #48]
 179 0054 42F00202 		orr	r2, r2, #2
 180 0058 1A63     		str	r2, [r3, #48]
 100:Core/Src/stm32f4xx_hal_msp.c ****     /**ADC1 GPIO Configuration
 181              		.loc 1 100 5 view .LVU38
 182 005a 1B6B     		ldr	r3, [r3, #48]
 183 005c 03F00203 		and	r3, r3, #2
 184 0060 0293     		str	r3, [sp, #8]
 100:Core/Src/stm32f4xx_hal_msp.c ****     /**ADC1 GPIO Configuration
 185              		.loc 1 100 5 view .LVU39
 186 0062 029B     		ldr	r3, [sp, #8]
 187              	.LBE6:
 100:Core/Src/stm32f4xx_hal_msp.c ****     /**ADC1 GPIO Configuration
 188              		.loc 1 100 5 view .LVU40
 107:Core/Src/stm32f4xx_hal_msp.c ****     GPIO_InitStruct.Mode = GPIO_MODE_ANALOG;
 189              		.loc 1 107 5 view .LVU41
 107:Core/Src/stm32f4xx_hal_msp.c ****     GPIO_InitStruct.Mode = GPIO_MODE_ANALOG;
 190              		.loc 1 107 25 is_stmt 0 view .LVU42
 191 0064 1323     		movs	r3, #19
 192 0066 0393     		str	r3, [sp, #12]
 108:Core/Src/stm32f4xx_hal_msp.c ****     GPIO_InitStruct.Pull = GPIO_NOPULL;
 193              		.loc 1 108 5 is_stmt 1 view .LVU43
 108:Core/Src/stm32f4xx_hal_msp.c ****     GPIO_InitStruct.Pull = GPIO_NOPULL;
 194              		.loc 1 108 26 is_stmt 0 view .LVU44
 195 0068 0325     		movs	r5, #3
 196 006a 0495     		str	r5, [sp, #16]
 109:Core/Src/stm32f4xx_hal_msp.c ****     HAL_GPIO_Init(GPIOA, &GPIO_InitStruct);
 197              		.loc 1 109 5 is_stmt 1 view .LVU45
 110:Core/Src/stm32f4xx_hal_msp.c **** 
 198              		.loc 1 110 5 view .LVU46
 199 006c 03A9     		add	r1, sp, #12
ARM GAS  /tmp/cc2svc3e.s 			page 7


 200 006e 0648     		ldr	r0, .L9
 201              	.LVL4:
 110:Core/Src/stm32f4xx_hal_msp.c **** 
 202              		.loc 1 110 5 is_stmt 0 view .LVU47
 203 0070 FFF7FEFF 		bl	HAL_GPIO_Init
 204              	.LVL5:
 112:Core/Src/stm32f4xx_hal_msp.c ****     GPIO_InitStruct.Mode = GPIO_MODE_ANALOG;
 205              		.loc 1 112 5 is_stmt 1 view .LVU48
 112:Core/Src/stm32f4xx_hal_msp.c ****     GPIO_InitStruct.Mode = GPIO_MODE_ANALOG;
 206              		.loc 1 112 25 is_stmt 0 view .LVU49
 207 0074 0123     		movs	r3, #1
 208 0076 0393     		str	r3, [sp, #12]
 113:Core/Src/stm32f4xx_hal_msp.c ****     GPIO_InitStruct.Pull = GPIO_NOPULL;
 209              		.loc 1 113 5 is_stmt 1 view .LVU50
 113:Core/Src/stm32f4xx_hal_msp.c ****     GPIO_InitStruct.Pull = GPIO_NOPULL;
 210              		.loc 1 113 26 is_stmt 0 view .LVU51
 211 0078 0495     		str	r5, [sp, #16]
 114:Core/Src/stm32f4xx_hal_msp.c ****     HAL_GPIO_Init(GPIOB, &GPIO_InitStruct);
 212              		.loc 1 114 5 is_stmt 1 view .LVU52
 114:Core/Src/stm32f4xx_hal_msp.c ****     HAL_GPIO_Init(GPIOB, &GPIO_InitStruct);
 213              		.loc 1 114 26 is_stmt 0 view .LVU53
 214 007a 0594     		str	r4, [sp, #20]
 115:Core/Src/stm32f4xx_hal_msp.c **** 
 215              		.loc 1 115 5 is_stmt 1 view .LVU54
 216 007c 03A9     		add	r1, sp, #12
 217 007e 0348     		ldr	r0, .L9+4
 218 0080 FFF7FEFF 		bl	HAL_GPIO_Init
 219              	.LVL6:
 220              		.loc 1 122 1 is_stmt 0 view .LVU55
 221 0084 CBE7     		b	.L5
 222              	.L10:
 223 0086 00BF     		.align	2
 224              	.L9:
 225 0088 00000240 		.word	1073872896
 226 008c 00040240 		.word	1073873920
 227              		.cfi_endproc
 228              	.LFE240:
 230              		.section	.text.HAL_ADC_MspDeInit,"ax",%progbits
 231              		.align	1
 232              		.global	HAL_ADC_MspDeInit
 233              		.syntax unified
 234              		.thumb
 235              		.thumb_func
 236              		.fpu fpv4-sp-d16
 238              	HAL_ADC_MspDeInit:
 239              	.LVL7:
 240              	.LFB241:
 123:Core/Src/stm32f4xx_hal_msp.c **** 
 124:Core/Src/stm32f4xx_hal_msp.c **** /**
 125:Core/Src/stm32f4xx_hal_msp.c **** * @brief ADC MSP De-Initialization
 126:Core/Src/stm32f4xx_hal_msp.c **** * This function freeze the hardware resources used in this example
 127:Core/Src/stm32f4xx_hal_msp.c **** * @param hadc: ADC handle pointer
 128:Core/Src/stm32f4xx_hal_msp.c **** * @retval None
 129:Core/Src/stm32f4xx_hal_msp.c **** */
 130:Core/Src/stm32f4xx_hal_msp.c **** void HAL_ADC_MspDeInit(ADC_HandleTypeDef* hadc)
 131:Core/Src/stm32f4xx_hal_msp.c **** {
 241              		.loc 1 131 1 is_stmt 1 view -0
ARM GAS  /tmp/cc2svc3e.s 			page 8


 242              		.cfi_startproc
 243              		@ args = 0, pretend = 0, frame = 0
 244              		@ frame_needed = 0, uses_anonymous_args = 0
 245              		.loc 1 131 1 is_stmt 0 view .LVU57
 246 0000 08B5     		push	{r3, lr}
 247              		.cfi_def_cfa_offset 8
 248              		.cfi_offset 3, -8
 249              		.cfi_offset 14, -4
 132:Core/Src/stm32f4xx_hal_msp.c ****   if(hadc->Instance==ADC1)
 250              		.loc 1 132 3 is_stmt 1 view .LVU58
 251              		.loc 1 132 10 is_stmt 0 view .LVU59
 252 0002 0268     		ldr	r2, [r0]
 253              		.loc 1 132 5 view .LVU60
 254 0004 084B     		ldr	r3, .L15
 255 0006 9A42     		cmp	r2, r3
 256 0008 00D0     		beq	.L14
 257              	.LVL8:
 258              	.L11:
 133:Core/Src/stm32f4xx_hal_msp.c ****   {
 134:Core/Src/stm32f4xx_hal_msp.c ****   /* USER CODE BEGIN ADC1_MspDeInit 0 */
 135:Core/Src/stm32f4xx_hal_msp.c **** 
 136:Core/Src/stm32f4xx_hal_msp.c ****   /* USER CODE END ADC1_MspDeInit 0 */
 137:Core/Src/stm32f4xx_hal_msp.c ****     /* Peripheral clock disable */
 138:Core/Src/stm32f4xx_hal_msp.c ****     __HAL_RCC_ADC1_CLK_DISABLE();
 139:Core/Src/stm32f4xx_hal_msp.c **** 
 140:Core/Src/stm32f4xx_hal_msp.c ****     /**ADC1 GPIO Configuration
 141:Core/Src/stm32f4xx_hal_msp.c ****     PA0-WKUP     ------> ADC1_IN0
 142:Core/Src/stm32f4xx_hal_msp.c ****     PA1     ------> ADC1_IN1
 143:Core/Src/stm32f4xx_hal_msp.c ****     PA4     ------> ADC1_IN4
 144:Core/Src/stm32f4xx_hal_msp.c ****     PB0     ------> ADC1_IN8
 145:Core/Src/stm32f4xx_hal_msp.c ****     */
 146:Core/Src/stm32f4xx_hal_msp.c ****     HAL_GPIO_DeInit(GPIOA, GPIO_PIN_0|GPIO_PIN_1|GPIO_PIN_4);
 147:Core/Src/stm32f4xx_hal_msp.c **** 
 148:Core/Src/stm32f4xx_hal_msp.c ****     HAL_GPIO_DeInit(GPIOB, GPIO_PIN_0);
 149:Core/Src/stm32f4xx_hal_msp.c **** 
 150:Core/Src/stm32f4xx_hal_msp.c ****   /* USER CODE BEGIN ADC1_MspDeInit 1 */
 151:Core/Src/stm32f4xx_hal_msp.c **** 
 152:Core/Src/stm32f4xx_hal_msp.c ****   /* USER CODE END ADC1_MspDeInit 1 */
 153:Core/Src/stm32f4xx_hal_msp.c ****   }
 154:Core/Src/stm32f4xx_hal_msp.c **** 
 155:Core/Src/stm32f4xx_hal_msp.c **** }
 259              		.loc 1 155 1 view .LVU61
 260 000a 08BD     		pop	{r3, pc}
 261              	.LVL9:
 262              	.L14:
 138:Core/Src/stm32f4xx_hal_msp.c **** 
 263              		.loc 1 138 5 is_stmt 1 view .LVU62
 264 000c 074A     		ldr	r2, .L15+4
 265 000e 536C     		ldr	r3, [r2, #68]
 266 0010 23F48073 		bic	r3, r3, #256
 267 0014 5364     		str	r3, [r2, #68]
 146:Core/Src/stm32f4xx_hal_msp.c **** 
 268              		.loc 1 146 5 view .LVU63
 269 0016 1321     		movs	r1, #19
 270 0018 0548     		ldr	r0, .L15+8
 271              	.LVL10:
 146:Core/Src/stm32f4xx_hal_msp.c **** 
ARM GAS  /tmp/cc2svc3e.s 			page 9


 272              		.loc 1 146 5 is_stmt 0 view .LVU64
 273 001a FFF7FEFF 		bl	HAL_GPIO_DeInit
 274              	.LVL11:
 148:Core/Src/stm32f4xx_hal_msp.c **** 
 275              		.loc 1 148 5 is_stmt 1 view .LVU65
 276 001e 0121     		movs	r1, #1
 277 0020 0448     		ldr	r0, .L15+12
 278 0022 FFF7FEFF 		bl	HAL_GPIO_DeInit
 279              	.LVL12:
 280              		.loc 1 155 1 is_stmt 0 view .LVU66
 281 0026 F0E7     		b	.L11
 282              	.L16:
 283              		.align	2
 284              	.L15:
 285 0028 00200140 		.word	1073815552
 286 002c 00380240 		.word	1073887232
 287 0030 00000240 		.word	1073872896
 288 0034 00040240 		.word	1073873920
 289              		.cfi_endproc
 290              	.LFE241:
 292              		.section	.text.HAL_I2C_MspInit,"ax",%progbits
 293              		.align	1
 294              		.global	HAL_I2C_MspInit
 295              		.syntax unified
 296              		.thumb
 297              		.thumb_func
 298              		.fpu fpv4-sp-d16
 300              	HAL_I2C_MspInit:
 301              	.LVL13:
 302              	.LFB242:
 156:Core/Src/stm32f4xx_hal_msp.c **** 
 157:Core/Src/stm32f4xx_hal_msp.c **** /**
 158:Core/Src/stm32f4xx_hal_msp.c **** * @brief I2C MSP Initialization
 159:Core/Src/stm32f4xx_hal_msp.c **** * This function configures the hardware resources used in this example
 160:Core/Src/stm32f4xx_hal_msp.c **** * @param hi2c: I2C handle pointer
 161:Core/Src/stm32f4xx_hal_msp.c **** * @retval None
 162:Core/Src/stm32f4xx_hal_msp.c **** */
 163:Core/Src/stm32f4xx_hal_msp.c **** void HAL_I2C_MspInit(I2C_HandleTypeDef* hi2c)
 164:Core/Src/stm32f4xx_hal_msp.c **** {
 303              		.loc 1 164 1 is_stmt 1 view -0
 304              		.cfi_startproc
 305              		@ args = 0, pretend = 0, frame = 40
 306              		@ frame_needed = 0, uses_anonymous_args = 0
 307              		.loc 1 164 1 is_stmt 0 view .LVU68
 308 0000 2DE9F041 		push	{r4, r5, r6, r7, r8, lr}
 309              		.cfi_def_cfa_offset 24
 310              		.cfi_offset 4, -24
 311              		.cfi_offset 5, -20
 312              		.cfi_offset 6, -16
 313              		.cfi_offset 7, -12
 314              		.cfi_offset 8, -8
 315              		.cfi_offset 14, -4
 316 0004 8AB0     		sub	sp, sp, #40
 317              		.cfi_def_cfa_offset 64
 165:Core/Src/stm32f4xx_hal_msp.c ****   GPIO_InitTypeDef GPIO_InitStruct = {0};
 318              		.loc 1 165 3 is_stmt 1 view .LVU69
 319              		.loc 1 165 20 is_stmt 0 view .LVU70
ARM GAS  /tmp/cc2svc3e.s 			page 10


 320 0006 0023     		movs	r3, #0
 321 0008 0593     		str	r3, [sp, #20]
 322 000a 0693     		str	r3, [sp, #24]
 323 000c 0793     		str	r3, [sp, #28]
 324 000e 0893     		str	r3, [sp, #32]
 325 0010 0993     		str	r3, [sp, #36]
 166:Core/Src/stm32f4xx_hal_msp.c ****   if(hi2c->Instance==I2C1)
 326              		.loc 1 166 3 is_stmt 1 view .LVU71
 327              		.loc 1 166 10 is_stmt 0 view .LVU72
 328 0012 0368     		ldr	r3, [r0]
 329              		.loc 1 166 5 view .LVU73
 330 0014 344A     		ldr	r2, .L23
 331 0016 9342     		cmp	r3, r2
 332 0018 05D0     		beq	.L21
 167:Core/Src/stm32f4xx_hal_msp.c ****   {
 168:Core/Src/stm32f4xx_hal_msp.c ****   /* USER CODE BEGIN I2C1_MspInit 0 */
 169:Core/Src/stm32f4xx_hal_msp.c **** 
 170:Core/Src/stm32f4xx_hal_msp.c ****   /* USER CODE END I2C1_MspInit 0 */
 171:Core/Src/stm32f4xx_hal_msp.c **** 
 172:Core/Src/stm32f4xx_hal_msp.c ****     __HAL_RCC_GPIOB_CLK_ENABLE();
 173:Core/Src/stm32f4xx_hal_msp.c ****     /**I2C1 GPIO Configuration
 174:Core/Src/stm32f4xx_hal_msp.c ****     PB8     ------> I2C1_SCL
 175:Core/Src/stm32f4xx_hal_msp.c ****     PB9     ------> I2C1_SDA
 176:Core/Src/stm32f4xx_hal_msp.c ****     */
 177:Core/Src/stm32f4xx_hal_msp.c ****     GPIO_InitStruct.Pin = GPIO_PIN_8|GPIO_PIN_9;
 178:Core/Src/stm32f4xx_hal_msp.c ****     GPIO_InitStruct.Mode = GPIO_MODE_AF_OD;
 179:Core/Src/stm32f4xx_hal_msp.c ****     GPIO_InitStruct.Pull = GPIO_NOPULL;
 180:Core/Src/stm32f4xx_hal_msp.c ****     GPIO_InitStruct.Speed = GPIO_SPEED_FREQ_VERY_HIGH;
 181:Core/Src/stm32f4xx_hal_msp.c ****     GPIO_InitStruct.Alternate = GPIO_AF4_I2C1;
 182:Core/Src/stm32f4xx_hal_msp.c ****     HAL_GPIO_Init(GPIOB, &GPIO_InitStruct);
 183:Core/Src/stm32f4xx_hal_msp.c **** 
 184:Core/Src/stm32f4xx_hal_msp.c ****     /* Peripheral clock enable */
 185:Core/Src/stm32f4xx_hal_msp.c ****     __HAL_RCC_I2C1_CLK_ENABLE();
 186:Core/Src/stm32f4xx_hal_msp.c ****   /* USER CODE BEGIN I2C1_MspInit 1 */
 187:Core/Src/stm32f4xx_hal_msp.c **** 
 188:Core/Src/stm32f4xx_hal_msp.c ****   /* USER CODE END I2C1_MspInit 1 */
 189:Core/Src/stm32f4xx_hal_msp.c ****   }
 190:Core/Src/stm32f4xx_hal_msp.c ****   else if(hi2c->Instance==I2C2)
 333              		.loc 1 190 8 is_stmt 1 view .LVU74
 334              		.loc 1 190 10 is_stmt 0 view .LVU75
 335 001a 344A     		ldr	r2, .L23+4
 336 001c 9342     		cmp	r3, r2
 337 001e 26D0     		beq	.L22
 338              	.LVL14:
 339              	.L17:
 191:Core/Src/stm32f4xx_hal_msp.c ****   {
 192:Core/Src/stm32f4xx_hal_msp.c ****   /* USER CODE BEGIN I2C2_MspInit 0 */
 193:Core/Src/stm32f4xx_hal_msp.c **** 
 194:Core/Src/stm32f4xx_hal_msp.c ****   /* USER CODE END I2C2_MspInit 0 */
 195:Core/Src/stm32f4xx_hal_msp.c **** 
 196:Core/Src/stm32f4xx_hal_msp.c ****     __HAL_RCC_GPIOB_CLK_ENABLE();
 197:Core/Src/stm32f4xx_hal_msp.c ****     __HAL_RCC_GPIOC_CLK_ENABLE();
 198:Core/Src/stm32f4xx_hal_msp.c ****     /**I2C2 GPIO Configuration
 199:Core/Src/stm32f4xx_hal_msp.c ****     PB10     ------> I2C2_SCL
 200:Core/Src/stm32f4xx_hal_msp.c ****     PC12     ------> I2C2_SDA
 201:Core/Src/stm32f4xx_hal_msp.c ****     */
 202:Core/Src/stm32f4xx_hal_msp.c ****     GPIO_InitStruct.Pin = GPIO_PIN_10;
ARM GAS  /tmp/cc2svc3e.s 			page 11


 203:Core/Src/stm32f4xx_hal_msp.c ****     GPIO_InitStruct.Mode = GPIO_MODE_AF_OD;
 204:Core/Src/stm32f4xx_hal_msp.c ****     GPIO_InitStruct.Pull = GPIO_NOPULL;
 205:Core/Src/stm32f4xx_hal_msp.c ****     GPIO_InitStruct.Speed = GPIO_SPEED_FREQ_VERY_HIGH;
 206:Core/Src/stm32f4xx_hal_msp.c ****     GPIO_InitStruct.Alternate = GPIO_AF4_I2C2;
 207:Core/Src/stm32f4xx_hal_msp.c ****     HAL_GPIO_Init(GPIOB, &GPIO_InitStruct);
 208:Core/Src/stm32f4xx_hal_msp.c **** 
 209:Core/Src/stm32f4xx_hal_msp.c ****     GPIO_InitStruct.Pin = GPIO_PIN_12;
 210:Core/Src/stm32f4xx_hal_msp.c ****     GPIO_InitStruct.Mode = GPIO_MODE_AF_OD;
 211:Core/Src/stm32f4xx_hal_msp.c ****     GPIO_InitStruct.Pull = GPIO_NOPULL;
 212:Core/Src/stm32f4xx_hal_msp.c ****     GPIO_InitStruct.Speed = GPIO_SPEED_FREQ_VERY_HIGH;
 213:Core/Src/stm32f4xx_hal_msp.c ****     GPIO_InitStruct.Alternate = GPIO_AF4_I2C2;
 214:Core/Src/stm32f4xx_hal_msp.c ****     HAL_GPIO_Init(GPIOC, &GPIO_InitStruct);
 215:Core/Src/stm32f4xx_hal_msp.c **** 
 216:Core/Src/stm32f4xx_hal_msp.c ****     /* Peripheral clock enable */
 217:Core/Src/stm32f4xx_hal_msp.c ****     __HAL_RCC_I2C2_CLK_ENABLE();
 218:Core/Src/stm32f4xx_hal_msp.c ****   /* USER CODE BEGIN I2C2_MspInit 1 */
 219:Core/Src/stm32f4xx_hal_msp.c **** 
 220:Core/Src/stm32f4xx_hal_msp.c ****   /* USER CODE END I2C2_MspInit 1 */
 221:Core/Src/stm32f4xx_hal_msp.c ****   }
 222:Core/Src/stm32f4xx_hal_msp.c **** 
 223:Core/Src/stm32f4xx_hal_msp.c **** }
 340              		.loc 1 223 1 view .LVU76
 341 0020 0AB0     		add	sp, sp, #40
 342              		.cfi_remember_state
 343              		.cfi_def_cfa_offset 24
 344              		@ sp needed
 345 0022 BDE8F081 		pop	{r4, r5, r6, r7, r8, pc}
 346              	.LVL15:
 347              	.L21:
 348              		.cfi_restore_state
 172:Core/Src/stm32f4xx_hal_msp.c ****     /**I2C1 GPIO Configuration
 349              		.loc 1 172 5 is_stmt 1 view .LVU77
 350              	.LBB7:
 172:Core/Src/stm32f4xx_hal_msp.c ****     /**I2C1 GPIO Configuration
 351              		.loc 1 172 5 view .LVU78
 352 0026 0025     		movs	r5, #0
 353 0028 0095     		str	r5, [sp]
 172:Core/Src/stm32f4xx_hal_msp.c ****     /**I2C1 GPIO Configuration
 354              		.loc 1 172 5 view .LVU79
 355 002a 314C     		ldr	r4, .L23+8
 356 002c 236B     		ldr	r3, [r4, #48]
 357 002e 43F00203 		orr	r3, r3, #2
 358 0032 2363     		str	r3, [r4, #48]
 172:Core/Src/stm32f4xx_hal_msp.c ****     /**I2C1 GPIO Configuration
 359              		.loc 1 172 5 view .LVU80
 360 0034 236B     		ldr	r3, [r4, #48]
 361 0036 03F00203 		and	r3, r3, #2
 362 003a 0093     		str	r3, [sp]
 172:Core/Src/stm32f4xx_hal_msp.c ****     /**I2C1 GPIO Configuration
 363              		.loc 1 172 5 view .LVU81
 364 003c 009B     		ldr	r3, [sp]
 365              	.LBE7:
 172:Core/Src/stm32f4xx_hal_msp.c ****     /**I2C1 GPIO Configuration
 366              		.loc 1 172 5 view .LVU82
 177:Core/Src/stm32f4xx_hal_msp.c ****     GPIO_InitStruct.Mode = GPIO_MODE_AF_OD;
 367              		.loc 1 177 5 view .LVU83
 177:Core/Src/stm32f4xx_hal_msp.c ****     GPIO_InitStruct.Mode = GPIO_MODE_AF_OD;
ARM GAS  /tmp/cc2svc3e.s 			page 12


 368              		.loc 1 177 25 is_stmt 0 view .LVU84
 369 003e 4FF44073 		mov	r3, #768
 370 0042 0593     		str	r3, [sp, #20]
 178:Core/Src/stm32f4xx_hal_msp.c ****     GPIO_InitStruct.Pull = GPIO_NOPULL;
 371              		.loc 1 178 5 is_stmt 1 view .LVU85
 178:Core/Src/stm32f4xx_hal_msp.c ****     GPIO_InitStruct.Pull = GPIO_NOPULL;
 372              		.loc 1 178 26 is_stmt 0 view .LVU86
 373 0044 1223     		movs	r3, #18
 374 0046 0693     		str	r3, [sp, #24]
 179:Core/Src/stm32f4xx_hal_msp.c ****     GPIO_InitStruct.Speed = GPIO_SPEED_FREQ_VERY_HIGH;
 375              		.loc 1 179 5 is_stmt 1 view .LVU87
 180:Core/Src/stm32f4xx_hal_msp.c ****     GPIO_InitStruct.Alternate = GPIO_AF4_I2C1;
 376              		.loc 1 180 5 view .LVU88
 180:Core/Src/stm32f4xx_hal_msp.c ****     GPIO_InitStruct.Alternate = GPIO_AF4_I2C1;
 377              		.loc 1 180 27 is_stmt 0 view .LVU89
 378 0048 0323     		movs	r3, #3
 379 004a 0893     		str	r3, [sp, #32]
 181:Core/Src/stm32f4xx_hal_msp.c ****     HAL_GPIO_Init(GPIOB, &GPIO_InitStruct);
 380              		.loc 1 181 5 is_stmt 1 view .LVU90
 181:Core/Src/stm32f4xx_hal_msp.c ****     HAL_GPIO_Init(GPIOB, &GPIO_InitStruct);
 381              		.loc 1 181 31 is_stmt 0 view .LVU91
 382 004c 0423     		movs	r3, #4
 383 004e 0993     		str	r3, [sp, #36]
 182:Core/Src/stm32f4xx_hal_msp.c **** 
 384              		.loc 1 182 5 is_stmt 1 view .LVU92
 385 0050 05A9     		add	r1, sp, #20
 386 0052 2848     		ldr	r0, .L23+12
 387              	.LVL16:
 182:Core/Src/stm32f4xx_hal_msp.c **** 
 388              		.loc 1 182 5 is_stmt 0 view .LVU93
 389 0054 FFF7FEFF 		bl	HAL_GPIO_Init
 390              	.LVL17:
 185:Core/Src/stm32f4xx_hal_msp.c ****   /* USER CODE BEGIN I2C1_MspInit 1 */
 391              		.loc 1 185 5 is_stmt 1 view .LVU94
 392              	.LBB8:
 185:Core/Src/stm32f4xx_hal_msp.c ****   /* USER CODE BEGIN I2C1_MspInit 1 */
 393              		.loc 1 185 5 view .LVU95
 394 0058 0195     		str	r5, [sp, #4]
 185:Core/Src/stm32f4xx_hal_msp.c ****   /* USER CODE BEGIN I2C1_MspInit 1 */
 395              		.loc 1 185 5 view .LVU96
 396 005a 236C     		ldr	r3, [r4, #64]
 397 005c 43F40013 		orr	r3, r3, #2097152
 398 0060 2364     		str	r3, [r4, #64]
 185:Core/Src/stm32f4xx_hal_msp.c ****   /* USER CODE BEGIN I2C1_MspInit 1 */
 399              		.loc 1 185 5 view .LVU97
 400 0062 236C     		ldr	r3, [r4, #64]
 401 0064 03F40013 		and	r3, r3, #2097152
 402 0068 0193     		str	r3, [sp, #4]
 185:Core/Src/stm32f4xx_hal_msp.c ****   /* USER CODE BEGIN I2C1_MspInit 1 */
 403              		.loc 1 185 5 view .LVU98
 404 006a 019B     		ldr	r3, [sp, #4]
 405              	.LBE8:
 185:Core/Src/stm32f4xx_hal_msp.c ****   /* USER CODE BEGIN I2C1_MspInit 1 */
 406              		.loc 1 185 5 view .LVU99
 407 006c D8E7     		b	.L17
 408              	.LVL18:
 409              	.L22:
ARM GAS  /tmp/cc2svc3e.s 			page 13


 196:Core/Src/stm32f4xx_hal_msp.c ****     __HAL_RCC_GPIOC_CLK_ENABLE();
 410              		.loc 1 196 5 view .LVU100
 411              	.LBB9:
 196:Core/Src/stm32f4xx_hal_msp.c ****     __HAL_RCC_GPIOC_CLK_ENABLE();
 412              		.loc 1 196 5 view .LVU101
 413 006e 0025     		movs	r5, #0
 414 0070 0295     		str	r5, [sp, #8]
 196:Core/Src/stm32f4xx_hal_msp.c ****     __HAL_RCC_GPIOC_CLK_ENABLE();
 415              		.loc 1 196 5 view .LVU102
 416 0072 1F4C     		ldr	r4, .L23+8
 417 0074 236B     		ldr	r3, [r4, #48]
 418 0076 43F00203 		orr	r3, r3, #2
 419 007a 2363     		str	r3, [r4, #48]
 196:Core/Src/stm32f4xx_hal_msp.c ****     __HAL_RCC_GPIOC_CLK_ENABLE();
 420              		.loc 1 196 5 view .LVU103
 421 007c 236B     		ldr	r3, [r4, #48]
 422 007e 03F00203 		and	r3, r3, #2
 423 0082 0293     		str	r3, [sp, #8]
 196:Core/Src/stm32f4xx_hal_msp.c ****     __HAL_RCC_GPIOC_CLK_ENABLE();
 424              		.loc 1 196 5 view .LVU104
 425 0084 029B     		ldr	r3, [sp, #8]
 426              	.LBE9:
 196:Core/Src/stm32f4xx_hal_msp.c ****     __HAL_RCC_GPIOC_CLK_ENABLE();
 427              		.loc 1 196 5 view .LVU105
 197:Core/Src/stm32f4xx_hal_msp.c ****     /**I2C2 GPIO Configuration
 428              		.loc 1 197 5 view .LVU106
 429              	.LBB10:
 197:Core/Src/stm32f4xx_hal_msp.c ****     /**I2C2 GPIO Configuration
 430              		.loc 1 197 5 view .LVU107
 431 0086 0395     		str	r5, [sp, #12]
 197:Core/Src/stm32f4xx_hal_msp.c ****     /**I2C2 GPIO Configuration
 432              		.loc 1 197 5 view .LVU108
 433 0088 236B     		ldr	r3, [r4, #48]
 434 008a 43F00403 		orr	r3, r3, #4
 435 008e 2363     		str	r3, [r4, #48]
 197:Core/Src/stm32f4xx_hal_msp.c ****     /**I2C2 GPIO Configuration
 436              		.loc 1 197 5 view .LVU109
 437 0090 236B     		ldr	r3, [r4, #48]
 438 0092 03F00403 		and	r3, r3, #4
 439 0096 0393     		str	r3, [sp, #12]
 197:Core/Src/stm32f4xx_hal_msp.c ****     /**I2C2 GPIO Configuration
 440              		.loc 1 197 5 view .LVU110
 441 0098 039B     		ldr	r3, [sp, #12]
 442              	.LBE10:
 197:Core/Src/stm32f4xx_hal_msp.c ****     /**I2C2 GPIO Configuration
 443              		.loc 1 197 5 view .LVU111
 202:Core/Src/stm32f4xx_hal_msp.c ****     GPIO_InitStruct.Mode = GPIO_MODE_AF_OD;
 444              		.loc 1 202 5 view .LVU112
 202:Core/Src/stm32f4xx_hal_msp.c ****     GPIO_InitStruct.Mode = GPIO_MODE_AF_OD;
 445              		.loc 1 202 25 is_stmt 0 view .LVU113
 446 009a 4FF48063 		mov	r3, #1024
 447 009e 0593     		str	r3, [sp, #20]
 203:Core/Src/stm32f4xx_hal_msp.c ****     GPIO_InitStruct.Pull = GPIO_NOPULL;
 448              		.loc 1 203 5 is_stmt 1 view .LVU114
 203:Core/Src/stm32f4xx_hal_msp.c ****     GPIO_InitStruct.Pull = GPIO_NOPULL;
 449              		.loc 1 203 26 is_stmt 0 view .LVU115
 450 00a0 4FF01208 		mov	r8, #18
ARM GAS  /tmp/cc2svc3e.s 			page 14


 451 00a4 CDF81880 		str	r8, [sp, #24]
 204:Core/Src/stm32f4xx_hal_msp.c ****     GPIO_InitStruct.Speed = GPIO_SPEED_FREQ_VERY_HIGH;
 452              		.loc 1 204 5 is_stmt 1 view .LVU116
 205:Core/Src/stm32f4xx_hal_msp.c ****     GPIO_InitStruct.Alternate = GPIO_AF4_I2C2;
 453              		.loc 1 205 5 view .LVU117
 205:Core/Src/stm32f4xx_hal_msp.c ****     GPIO_InitStruct.Alternate = GPIO_AF4_I2C2;
 454              		.loc 1 205 27 is_stmt 0 view .LVU118
 455 00a8 0327     		movs	r7, #3
 456 00aa 0897     		str	r7, [sp, #32]
 206:Core/Src/stm32f4xx_hal_msp.c ****     HAL_GPIO_Init(GPIOB, &GPIO_InitStruct);
 457              		.loc 1 206 5 is_stmt 1 view .LVU119
 206:Core/Src/stm32f4xx_hal_msp.c ****     HAL_GPIO_Init(GPIOB, &GPIO_InitStruct);
 458              		.loc 1 206 31 is_stmt 0 view .LVU120
 459 00ac 0426     		movs	r6, #4
 460 00ae 0996     		str	r6, [sp, #36]
 207:Core/Src/stm32f4xx_hal_msp.c **** 
 461              		.loc 1 207 5 is_stmt 1 view .LVU121
 462 00b0 05A9     		add	r1, sp, #20
 463 00b2 1048     		ldr	r0, .L23+12
 464              	.LVL19:
 207:Core/Src/stm32f4xx_hal_msp.c **** 
 465              		.loc 1 207 5 is_stmt 0 view .LVU122
 466 00b4 FFF7FEFF 		bl	HAL_GPIO_Init
 467              	.LVL20:
 209:Core/Src/stm32f4xx_hal_msp.c ****     GPIO_InitStruct.Mode = GPIO_MODE_AF_OD;
 468              		.loc 1 209 5 is_stmt 1 view .LVU123
 209:Core/Src/stm32f4xx_hal_msp.c ****     GPIO_InitStruct.Mode = GPIO_MODE_AF_OD;
 469              		.loc 1 209 25 is_stmt 0 view .LVU124
 470 00b8 4FF48053 		mov	r3, #4096
 471 00bc 0593     		str	r3, [sp, #20]
 210:Core/Src/stm32f4xx_hal_msp.c ****     GPIO_InitStruct.Pull = GPIO_NOPULL;
 472              		.loc 1 210 5 is_stmt 1 view .LVU125
 210:Core/Src/stm32f4xx_hal_msp.c ****     GPIO_InitStruct.Pull = GPIO_NOPULL;
 473              		.loc 1 210 26 is_stmt 0 view .LVU126
 474 00be CDF81880 		str	r8, [sp, #24]
 211:Core/Src/stm32f4xx_hal_msp.c ****     GPIO_InitStruct.Speed = GPIO_SPEED_FREQ_VERY_HIGH;
 475              		.loc 1 211 5 is_stmt 1 view .LVU127
 211:Core/Src/stm32f4xx_hal_msp.c ****     GPIO_InitStruct.Speed = GPIO_SPEED_FREQ_VERY_HIGH;
 476              		.loc 1 211 26 is_stmt 0 view .LVU128
 477 00c2 0795     		str	r5, [sp, #28]
 212:Core/Src/stm32f4xx_hal_msp.c ****     GPIO_InitStruct.Alternate = GPIO_AF4_I2C2;
 478              		.loc 1 212 5 is_stmt 1 view .LVU129
 212:Core/Src/stm32f4xx_hal_msp.c ****     GPIO_InitStruct.Alternate = GPIO_AF4_I2C2;
 479              		.loc 1 212 27 is_stmt 0 view .LVU130
 480 00c4 0897     		str	r7, [sp, #32]
 213:Core/Src/stm32f4xx_hal_msp.c ****     HAL_GPIO_Init(GPIOC, &GPIO_InitStruct);
 481              		.loc 1 213 5 is_stmt 1 view .LVU131
 213:Core/Src/stm32f4xx_hal_msp.c ****     HAL_GPIO_Init(GPIOC, &GPIO_InitStruct);
 482              		.loc 1 213 31 is_stmt 0 view .LVU132
 483 00c6 0996     		str	r6, [sp, #36]
 214:Core/Src/stm32f4xx_hal_msp.c **** 
 484              		.loc 1 214 5 is_stmt 1 view .LVU133
 485 00c8 05A9     		add	r1, sp, #20
 486 00ca 0B48     		ldr	r0, .L23+16
 487 00cc FFF7FEFF 		bl	HAL_GPIO_Init
 488              	.LVL21:
 217:Core/Src/stm32f4xx_hal_msp.c ****   /* USER CODE BEGIN I2C2_MspInit 1 */
ARM GAS  /tmp/cc2svc3e.s 			page 15


 489              		.loc 1 217 5 view .LVU134
 490              	.LBB11:
 217:Core/Src/stm32f4xx_hal_msp.c ****   /* USER CODE BEGIN I2C2_MspInit 1 */
 491              		.loc 1 217 5 view .LVU135
 492 00d0 0495     		str	r5, [sp, #16]
 217:Core/Src/stm32f4xx_hal_msp.c ****   /* USER CODE BEGIN I2C2_MspInit 1 */
 493              		.loc 1 217 5 view .LVU136
 494 00d2 236C     		ldr	r3, [r4, #64]
 495 00d4 43F48003 		orr	r3, r3, #4194304
 496 00d8 2364     		str	r3, [r4, #64]
 217:Core/Src/stm32f4xx_hal_msp.c ****   /* USER CODE BEGIN I2C2_MspInit 1 */
 497              		.loc 1 217 5 view .LVU137
 498 00da 236C     		ldr	r3, [r4, #64]
 499 00dc 03F48003 		and	r3, r3, #4194304
 500 00e0 0493     		str	r3, [sp, #16]
 217:Core/Src/stm32f4xx_hal_msp.c ****   /* USER CODE BEGIN I2C2_MspInit 1 */
 501              		.loc 1 217 5 view .LVU138
 502 00e2 049B     		ldr	r3, [sp, #16]
 503              	.LBE11:
 217:Core/Src/stm32f4xx_hal_msp.c ****   /* USER CODE BEGIN I2C2_MspInit 1 */
 504              		.loc 1 217 5 view .LVU139
 505              		.loc 1 223 1 is_stmt 0 view .LVU140
 506 00e4 9CE7     		b	.L17
 507              	.L24:
 508 00e6 00BF     		.align	2
 509              	.L23:
 510 00e8 00540040 		.word	1073763328
 511 00ec 00580040 		.word	1073764352
 512 00f0 00380240 		.word	1073887232
 513 00f4 00040240 		.word	1073873920
 514 00f8 00080240 		.word	1073874944
 515              		.cfi_endproc
 516              	.LFE242:
 518              		.section	.text.HAL_I2C_MspDeInit,"ax",%progbits
 519              		.align	1
 520              		.global	HAL_I2C_MspDeInit
 521              		.syntax unified
 522              		.thumb
 523              		.thumb_func
 524              		.fpu fpv4-sp-d16
 526              	HAL_I2C_MspDeInit:
 527              	.LVL22:
 528              	.LFB243:
 224:Core/Src/stm32f4xx_hal_msp.c **** 
 225:Core/Src/stm32f4xx_hal_msp.c **** /**
 226:Core/Src/stm32f4xx_hal_msp.c **** * @brief I2C MSP De-Initialization
 227:Core/Src/stm32f4xx_hal_msp.c **** * This function freeze the hardware resources used in this example
 228:Core/Src/stm32f4xx_hal_msp.c **** * @param hi2c: I2C handle pointer
 229:Core/Src/stm32f4xx_hal_msp.c **** * @retval None
 230:Core/Src/stm32f4xx_hal_msp.c **** */
 231:Core/Src/stm32f4xx_hal_msp.c **** void HAL_I2C_MspDeInit(I2C_HandleTypeDef* hi2c)
 232:Core/Src/stm32f4xx_hal_msp.c **** {
 529              		.loc 1 232 1 is_stmt 1 view -0
 530              		.cfi_startproc
 531              		@ args = 0, pretend = 0, frame = 0
 532              		@ frame_needed = 0, uses_anonymous_args = 0
 533              		.loc 1 232 1 is_stmt 0 view .LVU142
ARM GAS  /tmp/cc2svc3e.s 			page 16


 534 0000 10B5     		push	{r4, lr}
 535              		.cfi_def_cfa_offset 8
 536              		.cfi_offset 4, -8
 537              		.cfi_offset 14, -4
 233:Core/Src/stm32f4xx_hal_msp.c ****   if(hi2c->Instance==I2C1)
 538              		.loc 1 233 3 is_stmt 1 view .LVU143
 539              		.loc 1 233 10 is_stmt 0 view .LVU144
 540 0002 0368     		ldr	r3, [r0]
 541              		.loc 1 233 5 view .LVU145
 542 0004 144A     		ldr	r2, .L31
 543 0006 9342     		cmp	r3, r2
 544 0008 03D0     		beq	.L29
 234:Core/Src/stm32f4xx_hal_msp.c ****   {
 235:Core/Src/stm32f4xx_hal_msp.c ****   /* USER CODE BEGIN I2C1_MspDeInit 0 */
 236:Core/Src/stm32f4xx_hal_msp.c **** 
 237:Core/Src/stm32f4xx_hal_msp.c ****   /* USER CODE END I2C1_MspDeInit 0 */
 238:Core/Src/stm32f4xx_hal_msp.c ****     /* Peripheral clock disable */
 239:Core/Src/stm32f4xx_hal_msp.c ****     __HAL_RCC_I2C1_CLK_DISABLE();
 240:Core/Src/stm32f4xx_hal_msp.c **** 
 241:Core/Src/stm32f4xx_hal_msp.c ****     /**I2C1 GPIO Configuration
 242:Core/Src/stm32f4xx_hal_msp.c ****     PB8     ------> I2C1_SCL
 243:Core/Src/stm32f4xx_hal_msp.c ****     PB9     ------> I2C1_SDA
 244:Core/Src/stm32f4xx_hal_msp.c ****     */
 245:Core/Src/stm32f4xx_hal_msp.c ****     HAL_GPIO_DeInit(GPIOB, GPIO_PIN_8);
 246:Core/Src/stm32f4xx_hal_msp.c **** 
 247:Core/Src/stm32f4xx_hal_msp.c ****     HAL_GPIO_DeInit(GPIOB, GPIO_PIN_9);
 248:Core/Src/stm32f4xx_hal_msp.c **** 
 249:Core/Src/stm32f4xx_hal_msp.c ****   /* USER CODE BEGIN I2C1_MspDeInit 1 */
 250:Core/Src/stm32f4xx_hal_msp.c **** 
 251:Core/Src/stm32f4xx_hal_msp.c ****   /* USER CODE END I2C1_MspDeInit 1 */
 252:Core/Src/stm32f4xx_hal_msp.c ****   }
 253:Core/Src/stm32f4xx_hal_msp.c ****   else if(hi2c->Instance==I2C2)
 545              		.loc 1 253 8 is_stmt 1 view .LVU146
 546              		.loc 1 253 10 is_stmt 0 view .LVU147
 547 000a 144A     		ldr	r2, .L31+4
 548 000c 9342     		cmp	r3, r2
 549 000e 12D0     		beq	.L30
 550              	.LVL23:
 551              	.L25:
 254:Core/Src/stm32f4xx_hal_msp.c ****   {
 255:Core/Src/stm32f4xx_hal_msp.c ****   /* USER CODE BEGIN I2C2_MspDeInit 0 */
 256:Core/Src/stm32f4xx_hal_msp.c **** 
 257:Core/Src/stm32f4xx_hal_msp.c ****   /* USER CODE END I2C2_MspDeInit 0 */
 258:Core/Src/stm32f4xx_hal_msp.c ****     /* Peripheral clock disable */
 259:Core/Src/stm32f4xx_hal_msp.c ****     __HAL_RCC_I2C2_CLK_DISABLE();
 260:Core/Src/stm32f4xx_hal_msp.c **** 
 261:Core/Src/stm32f4xx_hal_msp.c ****     /**I2C2 GPIO Configuration
 262:Core/Src/stm32f4xx_hal_msp.c ****     PB10     ------> I2C2_SCL
 263:Core/Src/stm32f4xx_hal_msp.c ****     PC12     ------> I2C2_SDA
 264:Core/Src/stm32f4xx_hal_msp.c ****     */
 265:Core/Src/stm32f4xx_hal_msp.c ****     HAL_GPIO_DeInit(GPIOB, GPIO_PIN_10);
 266:Core/Src/stm32f4xx_hal_msp.c **** 
 267:Core/Src/stm32f4xx_hal_msp.c ****     HAL_GPIO_DeInit(GPIOC, GPIO_PIN_12);
 268:Core/Src/stm32f4xx_hal_msp.c **** 
 269:Core/Src/stm32f4xx_hal_msp.c ****   /* USER CODE BEGIN I2C2_MspDeInit 1 */
 270:Core/Src/stm32f4xx_hal_msp.c **** 
 271:Core/Src/stm32f4xx_hal_msp.c ****   /* USER CODE END I2C2_MspDeInit 1 */
ARM GAS  /tmp/cc2svc3e.s 			page 17


 272:Core/Src/stm32f4xx_hal_msp.c ****   }
 273:Core/Src/stm32f4xx_hal_msp.c **** 
 274:Core/Src/stm32f4xx_hal_msp.c **** }
 552              		.loc 1 274 1 view .LVU148
 553 0010 10BD     		pop	{r4, pc}
 554              	.LVL24:
 555              	.L29:
 239:Core/Src/stm32f4xx_hal_msp.c **** 
 556              		.loc 1 239 5 is_stmt 1 view .LVU149
 557 0012 02F5F232 		add	r2, r2, #123904
 558 0016 136C     		ldr	r3, [r2, #64]
 559 0018 23F40013 		bic	r3, r3, #2097152
 560 001c 1364     		str	r3, [r2, #64]
 245:Core/Src/stm32f4xx_hal_msp.c **** 
 561              		.loc 1 245 5 view .LVU150
 562 001e 104C     		ldr	r4, .L31+8
 563 0020 4FF48071 		mov	r1, #256
 564 0024 2046     		mov	r0, r4
 565              	.LVL25:
 245:Core/Src/stm32f4xx_hal_msp.c **** 
 566              		.loc 1 245 5 is_stmt 0 view .LVU151
 567 0026 FFF7FEFF 		bl	HAL_GPIO_DeInit
 568              	.LVL26:
 247:Core/Src/stm32f4xx_hal_msp.c **** 
 569              		.loc 1 247 5 is_stmt 1 view .LVU152
 570 002a 4FF40071 		mov	r1, #512
 571 002e 2046     		mov	r0, r4
 572 0030 FFF7FEFF 		bl	HAL_GPIO_DeInit
 573              	.LVL27:
 574 0034 ECE7     		b	.L25
 575              	.LVL28:
 576              	.L30:
 259:Core/Src/stm32f4xx_hal_msp.c **** 
 577              		.loc 1 259 5 view .LVU153
 578 0036 02F5F032 		add	r2, r2, #122880
 579 003a 136C     		ldr	r3, [r2, #64]
 580 003c 23F48003 		bic	r3, r3, #4194304
 581 0040 1364     		str	r3, [r2, #64]
 265:Core/Src/stm32f4xx_hal_msp.c **** 
 582              		.loc 1 265 5 view .LVU154
 583 0042 4FF48061 		mov	r1, #1024
 584 0046 0648     		ldr	r0, .L31+8
 585              	.LVL29:
 265:Core/Src/stm32f4xx_hal_msp.c **** 
 586              		.loc 1 265 5 is_stmt 0 view .LVU155
 587 0048 FFF7FEFF 		bl	HAL_GPIO_DeInit
 588              	.LVL30:
 267:Core/Src/stm32f4xx_hal_msp.c **** 
 589              		.loc 1 267 5 is_stmt 1 view .LVU156
 590 004c 4FF48051 		mov	r1, #4096
 591 0050 0448     		ldr	r0, .L31+12
 592 0052 FFF7FEFF 		bl	HAL_GPIO_DeInit
 593              	.LVL31:
 594              		.loc 1 274 1 is_stmt 0 view .LVU157
 595 0056 DBE7     		b	.L25
 596              	.L32:
 597              		.align	2
ARM GAS  /tmp/cc2svc3e.s 			page 18


 598              	.L31:
 599 0058 00540040 		.word	1073763328
 600 005c 00580040 		.word	1073764352
 601 0060 00040240 		.word	1073873920
 602 0064 00080240 		.word	1073874944
 603              		.cfi_endproc
 604              	.LFE243:
 606              		.section	.text.HAL_UART_MspInit,"ax",%progbits
 607              		.align	1
 608              		.global	HAL_UART_MspInit
 609              		.syntax unified
 610              		.thumb
 611              		.thumb_func
 612              		.fpu fpv4-sp-d16
 614              	HAL_UART_MspInit:
 615              	.LVL32:
 616              	.LFB244:
 275:Core/Src/stm32f4xx_hal_msp.c **** 
 276:Core/Src/stm32f4xx_hal_msp.c **** /**
 277:Core/Src/stm32f4xx_hal_msp.c **** * @brief UART MSP Initialization
 278:Core/Src/stm32f4xx_hal_msp.c **** * This function configures the hardware resources used in this example
 279:Core/Src/stm32f4xx_hal_msp.c **** * @param huart: UART handle pointer
 280:Core/Src/stm32f4xx_hal_msp.c **** * @retval None
 281:Core/Src/stm32f4xx_hal_msp.c **** */
 282:Core/Src/stm32f4xx_hal_msp.c **** void HAL_UART_MspInit(UART_HandleTypeDef* huart)
 283:Core/Src/stm32f4xx_hal_msp.c **** {
 617              		.loc 1 283 1 is_stmt 1 view -0
 618              		.cfi_startproc
 619              		@ args = 0, pretend = 0, frame = 32
 620              		@ frame_needed = 0, uses_anonymous_args = 0
 621              		.loc 1 283 1 is_stmt 0 view .LVU159
 622 0000 00B5     		push	{lr}
 623              		.cfi_def_cfa_offset 4
 624              		.cfi_offset 14, -4
 625 0002 89B0     		sub	sp, sp, #36
 626              		.cfi_def_cfa_offset 40
 284:Core/Src/stm32f4xx_hal_msp.c ****   GPIO_InitTypeDef GPIO_InitStruct = {0};
 627              		.loc 1 284 3 is_stmt 1 view .LVU160
 628              		.loc 1 284 20 is_stmt 0 view .LVU161
 629 0004 0023     		movs	r3, #0
 630 0006 0393     		str	r3, [sp, #12]
 631 0008 0493     		str	r3, [sp, #16]
 632 000a 0593     		str	r3, [sp, #20]
 633 000c 0693     		str	r3, [sp, #24]
 634 000e 0793     		str	r3, [sp, #28]
 285:Core/Src/stm32f4xx_hal_msp.c ****   if(huart->Instance==USART2)
 635              		.loc 1 285 3 is_stmt 1 view .LVU162
 636              		.loc 1 285 11 is_stmt 0 view .LVU163
 637 0010 0268     		ldr	r2, [r0]
 638              		.loc 1 285 5 view .LVU164
 639 0012 154B     		ldr	r3, .L37
 640 0014 9A42     		cmp	r2, r3
 641 0016 02D0     		beq	.L36
 642              	.LVL33:
 643              	.L33:
 286:Core/Src/stm32f4xx_hal_msp.c ****   {
 287:Core/Src/stm32f4xx_hal_msp.c ****   /* USER CODE BEGIN USART2_MspInit 0 */
ARM GAS  /tmp/cc2svc3e.s 			page 19


 288:Core/Src/stm32f4xx_hal_msp.c **** 
 289:Core/Src/stm32f4xx_hal_msp.c ****   /* USER CODE END USART2_MspInit 0 */
 290:Core/Src/stm32f4xx_hal_msp.c ****     /* Peripheral clock enable */
 291:Core/Src/stm32f4xx_hal_msp.c ****     __HAL_RCC_USART2_CLK_ENABLE();
 292:Core/Src/stm32f4xx_hal_msp.c **** 
 293:Core/Src/stm32f4xx_hal_msp.c ****     __HAL_RCC_GPIOA_CLK_ENABLE();
 294:Core/Src/stm32f4xx_hal_msp.c ****     /**USART2 GPIO Configuration
 295:Core/Src/stm32f4xx_hal_msp.c ****     PA2     ------> USART2_TX
 296:Core/Src/stm32f4xx_hal_msp.c ****     PA3     ------> USART2_RX
 297:Core/Src/stm32f4xx_hal_msp.c ****     */
 298:Core/Src/stm32f4xx_hal_msp.c ****     GPIO_InitStruct.Pin = USART_TX_Pin|USART_RX_Pin;
 299:Core/Src/stm32f4xx_hal_msp.c ****     GPIO_InitStruct.Mode = GPIO_MODE_AF_PP;
 300:Core/Src/stm32f4xx_hal_msp.c ****     GPIO_InitStruct.Pull = GPIO_NOPULL;
 301:Core/Src/stm32f4xx_hal_msp.c ****     GPIO_InitStruct.Speed = GPIO_SPEED_FREQ_VERY_HIGH;
 302:Core/Src/stm32f4xx_hal_msp.c ****     GPIO_InitStruct.Alternate = GPIO_AF7_USART2;
 303:Core/Src/stm32f4xx_hal_msp.c ****     HAL_GPIO_Init(GPIOA, &GPIO_InitStruct);
 304:Core/Src/stm32f4xx_hal_msp.c **** 
 305:Core/Src/stm32f4xx_hal_msp.c ****   /* USER CODE BEGIN USART2_MspInit 1 */
 306:Core/Src/stm32f4xx_hal_msp.c **** 
 307:Core/Src/stm32f4xx_hal_msp.c ****   /* USER CODE END USART2_MspInit 1 */
 308:Core/Src/stm32f4xx_hal_msp.c ****   }
 309:Core/Src/stm32f4xx_hal_msp.c **** 
 310:Core/Src/stm32f4xx_hal_msp.c **** }
 644              		.loc 1 310 1 view .LVU165
 645 0018 09B0     		add	sp, sp, #36
 646              		.cfi_remember_state
 647              		.cfi_def_cfa_offset 4
 648              		@ sp needed
 649 001a 5DF804FB 		ldr	pc, [sp], #4
 650              	.LVL34:
 651              	.L36:
 652              		.cfi_restore_state
 291:Core/Src/stm32f4xx_hal_msp.c **** 
 653              		.loc 1 291 5 is_stmt 1 view .LVU166
 654              	.LBB12:
 291:Core/Src/stm32f4xx_hal_msp.c **** 
 655              		.loc 1 291 5 view .LVU167
 656 001e 0021     		movs	r1, #0
 657 0020 0191     		str	r1, [sp, #4]
 291:Core/Src/stm32f4xx_hal_msp.c **** 
 658              		.loc 1 291 5 view .LVU168
 659 0022 03F5FA33 		add	r3, r3, #128000
 660 0026 1A6C     		ldr	r2, [r3, #64]
 661 0028 42F40032 		orr	r2, r2, #131072
 662 002c 1A64     		str	r2, [r3, #64]
 291:Core/Src/stm32f4xx_hal_msp.c **** 
 663              		.loc 1 291 5 view .LVU169
 664 002e 1A6C     		ldr	r2, [r3, #64]
 665 0030 02F40032 		and	r2, r2, #131072
 666 0034 0192     		str	r2, [sp, #4]
 291:Core/Src/stm32f4xx_hal_msp.c **** 
 667              		.loc 1 291 5 view .LVU170
 668 0036 019A     		ldr	r2, [sp, #4]
 669              	.LBE12:
 291:Core/Src/stm32f4xx_hal_msp.c **** 
 670              		.loc 1 291 5 view .LVU171
 293:Core/Src/stm32f4xx_hal_msp.c ****     /**USART2 GPIO Configuration
ARM GAS  /tmp/cc2svc3e.s 			page 20


 671              		.loc 1 293 5 view .LVU172
 672              	.LBB13:
 293:Core/Src/stm32f4xx_hal_msp.c ****     /**USART2 GPIO Configuration
 673              		.loc 1 293 5 view .LVU173
 674 0038 0291     		str	r1, [sp, #8]
 293:Core/Src/stm32f4xx_hal_msp.c ****     /**USART2 GPIO Configuration
 675              		.loc 1 293 5 view .LVU174
 676 003a 1A6B     		ldr	r2, [r3, #48]
 677 003c 42F00102 		orr	r2, r2, #1
 678 0040 1A63     		str	r2, [r3, #48]
 293:Core/Src/stm32f4xx_hal_msp.c ****     /**USART2 GPIO Configuration
 679              		.loc 1 293 5 view .LVU175
 680 0042 1B6B     		ldr	r3, [r3, #48]
 681 0044 03F00103 		and	r3, r3, #1
 682 0048 0293     		str	r3, [sp, #8]
 293:Core/Src/stm32f4xx_hal_msp.c ****     /**USART2 GPIO Configuration
 683              		.loc 1 293 5 view .LVU176
 684 004a 029B     		ldr	r3, [sp, #8]
 685              	.LBE13:
 293:Core/Src/stm32f4xx_hal_msp.c ****     /**USART2 GPIO Configuration
 686              		.loc 1 293 5 view .LVU177
 298:Core/Src/stm32f4xx_hal_msp.c ****     GPIO_InitStruct.Mode = GPIO_MODE_AF_PP;
 687              		.loc 1 298 5 view .LVU178
 298:Core/Src/stm32f4xx_hal_msp.c ****     GPIO_InitStruct.Mode = GPIO_MODE_AF_PP;
 688              		.loc 1 298 25 is_stmt 0 view .LVU179
 689 004c 0C23     		movs	r3, #12
 690 004e 0393     		str	r3, [sp, #12]
 299:Core/Src/stm32f4xx_hal_msp.c ****     GPIO_InitStruct.Pull = GPIO_NOPULL;
 691              		.loc 1 299 5 is_stmt 1 view .LVU180
 299:Core/Src/stm32f4xx_hal_msp.c ****     GPIO_InitStruct.Pull = GPIO_NOPULL;
 692              		.loc 1 299 26 is_stmt 0 view .LVU181
 693 0050 0223     		movs	r3, #2
 694 0052 0493     		str	r3, [sp, #16]
 300:Core/Src/stm32f4xx_hal_msp.c ****     GPIO_InitStruct.Speed = GPIO_SPEED_FREQ_VERY_HIGH;
 695              		.loc 1 300 5 is_stmt 1 view .LVU182
 301:Core/Src/stm32f4xx_hal_msp.c ****     GPIO_InitStruct.Alternate = GPIO_AF7_USART2;
 696              		.loc 1 301 5 view .LVU183
 301:Core/Src/stm32f4xx_hal_msp.c ****     GPIO_InitStruct.Alternate = GPIO_AF7_USART2;
 697              		.loc 1 301 27 is_stmt 0 view .LVU184
 698 0054 0323     		movs	r3, #3
 699 0056 0693     		str	r3, [sp, #24]
 302:Core/Src/stm32f4xx_hal_msp.c ****     HAL_GPIO_Init(GPIOA, &GPIO_InitStruct);
 700              		.loc 1 302 5 is_stmt 1 view .LVU185
 302:Core/Src/stm32f4xx_hal_msp.c ****     HAL_GPIO_Init(GPIOA, &GPIO_InitStruct);
 701              		.loc 1 302 31 is_stmt 0 view .LVU186
 702 0058 0723     		movs	r3, #7
 703 005a 0793     		str	r3, [sp, #28]
 303:Core/Src/stm32f4xx_hal_msp.c **** 
 704              		.loc 1 303 5 is_stmt 1 view .LVU187
 705 005c 03A9     		add	r1, sp, #12
 706 005e 0348     		ldr	r0, .L37+4
 707              	.LVL35:
 303:Core/Src/stm32f4xx_hal_msp.c **** 
 708              		.loc 1 303 5 is_stmt 0 view .LVU188
 709 0060 FFF7FEFF 		bl	HAL_GPIO_Init
 710              	.LVL36:
 711              		.loc 1 310 1 view .LVU189
ARM GAS  /tmp/cc2svc3e.s 			page 21


 712 0064 D8E7     		b	.L33
 713              	.L38:
 714 0066 00BF     		.align	2
 715              	.L37:
 716 0068 00440040 		.word	1073759232
 717 006c 00000240 		.word	1073872896
 718              		.cfi_endproc
 719              	.LFE244:
 721              		.section	.text.HAL_UART_MspDeInit,"ax",%progbits
 722              		.align	1
 723              		.global	HAL_UART_MspDeInit
 724              		.syntax unified
 725              		.thumb
 726              		.thumb_func
 727              		.fpu fpv4-sp-d16
 729              	HAL_UART_MspDeInit:
 730              	.LVL37:
 731              	.LFB245:
 311:Core/Src/stm32f4xx_hal_msp.c **** 
 312:Core/Src/stm32f4xx_hal_msp.c **** /**
 313:Core/Src/stm32f4xx_hal_msp.c **** * @brief UART MSP De-Initialization
 314:Core/Src/stm32f4xx_hal_msp.c **** * This function freeze the hardware resources used in this example
 315:Core/Src/stm32f4xx_hal_msp.c **** * @param huart: UART handle pointer
 316:Core/Src/stm32f4xx_hal_msp.c **** * @retval None
 317:Core/Src/stm32f4xx_hal_msp.c **** */
 318:Core/Src/stm32f4xx_hal_msp.c **** void HAL_UART_MspDeInit(UART_HandleTypeDef* huart)
 319:Core/Src/stm32f4xx_hal_msp.c **** {
 732              		.loc 1 319 1 is_stmt 1 view -0
 733              		.cfi_startproc
 734              		@ args = 0, pretend = 0, frame = 0
 735              		@ frame_needed = 0, uses_anonymous_args = 0
 736              		.loc 1 319 1 is_stmt 0 view .LVU191
 737 0000 08B5     		push	{r3, lr}
 738              		.cfi_def_cfa_offset 8
 739              		.cfi_offset 3, -8
 740              		.cfi_offset 14, -4
 320:Core/Src/stm32f4xx_hal_msp.c ****   if(huart->Instance==USART2)
 741              		.loc 1 320 3 is_stmt 1 view .LVU192
 742              		.loc 1 320 11 is_stmt 0 view .LVU193
 743 0002 0268     		ldr	r2, [r0]
 744              		.loc 1 320 5 view .LVU194
 745 0004 064B     		ldr	r3, .L43
 746 0006 9A42     		cmp	r2, r3
 747 0008 00D0     		beq	.L42
 748              	.LVL38:
 749              	.L39:
 321:Core/Src/stm32f4xx_hal_msp.c ****   {
 322:Core/Src/stm32f4xx_hal_msp.c ****   /* USER CODE BEGIN USART2_MspDeInit 0 */
 323:Core/Src/stm32f4xx_hal_msp.c **** 
 324:Core/Src/stm32f4xx_hal_msp.c ****   /* USER CODE END USART2_MspDeInit 0 */
 325:Core/Src/stm32f4xx_hal_msp.c ****     /* Peripheral clock disable */
 326:Core/Src/stm32f4xx_hal_msp.c ****     __HAL_RCC_USART2_CLK_DISABLE();
 327:Core/Src/stm32f4xx_hal_msp.c **** 
 328:Core/Src/stm32f4xx_hal_msp.c ****     /**USART2 GPIO Configuration
 329:Core/Src/stm32f4xx_hal_msp.c ****     PA2     ------> USART2_TX
 330:Core/Src/stm32f4xx_hal_msp.c ****     PA3     ------> USART2_RX
 331:Core/Src/stm32f4xx_hal_msp.c ****     */
ARM GAS  /tmp/cc2svc3e.s 			page 22


 332:Core/Src/stm32f4xx_hal_msp.c ****     HAL_GPIO_DeInit(GPIOA, USART_TX_Pin|USART_RX_Pin);
 333:Core/Src/stm32f4xx_hal_msp.c **** 
 334:Core/Src/stm32f4xx_hal_msp.c ****   /* USER CODE BEGIN USART2_MspDeInit 1 */
 335:Core/Src/stm32f4xx_hal_msp.c **** 
 336:Core/Src/stm32f4xx_hal_msp.c ****   /* USER CODE END USART2_MspDeInit 1 */
 337:Core/Src/stm32f4xx_hal_msp.c ****   }
 338:Core/Src/stm32f4xx_hal_msp.c **** 
 339:Core/Src/stm32f4xx_hal_msp.c **** }
 750              		.loc 1 339 1 view .LVU195
 751 000a 08BD     		pop	{r3, pc}
 752              	.LVL39:
 753              	.L42:
 326:Core/Src/stm32f4xx_hal_msp.c **** 
 754              		.loc 1 326 5 is_stmt 1 view .LVU196
 755 000c 054A     		ldr	r2, .L43+4
 756 000e 136C     		ldr	r3, [r2, #64]
 757 0010 23F40033 		bic	r3, r3, #131072
 758 0014 1364     		str	r3, [r2, #64]
 332:Core/Src/stm32f4xx_hal_msp.c **** 
 759              		.loc 1 332 5 view .LVU197
 760 0016 0C21     		movs	r1, #12
 761 0018 0348     		ldr	r0, .L43+8
 762              	.LVL40:
 332:Core/Src/stm32f4xx_hal_msp.c **** 
 763              		.loc 1 332 5 is_stmt 0 view .LVU198
 764 001a FFF7FEFF 		bl	HAL_GPIO_DeInit
 765              	.LVL41:
 766              		.loc 1 339 1 view .LVU199
 767 001e F4E7     		b	.L39
 768              	.L44:
 769              		.align	2
 770              	.L43:
 771 0020 00440040 		.word	1073759232
 772 0024 00380240 		.word	1073887232
 773 0028 00000240 		.word	1073872896
 774              		.cfi_endproc
 775              	.LFE245:
 777              		.text
 778              	.Letext0:
 779              		.file 2 "/usr/lib/gcc/arm-none-eabi/10.3.1/include/stdint.h"
 780              		.file 3 "Drivers/CMSIS/Device/ST/STM32F4xx/Include/stm32f446xx.h"
 781              		.file 4 "Drivers/CMSIS/Device/ST/STM32F4xx/Include/stm32f4xx.h"
 782              		.file 5 "Drivers/STM32F4xx_HAL_Driver/Inc/stm32f4xx_hal_def.h"
 783              		.file 6 "Drivers/STM32F4xx_HAL_Driver/Inc/stm32f4xx_hal_gpio.h"
 784              		.file 7 "Drivers/STM32F4xx_HAL_Driver/Inc/stm32f4xx_hal_dma.h"
 785              		.file 8 "Drivers/STM32F4xx_HAL_Driver/Inc/stm32f4xx_hal_adc.h"
 786              		.file 9 "Drivers/STM32F4xx_HAL_Driver/Inc/stm32f4xx_hal_i2c.h"
 787              		.file 10 "Drivers/STM32F4xx_HAL_Driver/Inc/stm32f4xx_hal_uart.h"
 788              		.file 11 "Drivers/STM32F4xx_HAL_Driver/Inc/stm32f4xx_hal_cortex.h"
ARM GAS  /tmp/cc2svc3e.s 			page 23


DEFINED SYMBOLS
                            *ABS*:0000000000000000 stm32f4xx_hal_msp.c
     /tmp/cc2svc3e.s:18     .text.HAL_MspInit:0000000000000000 $t
     /tmp/cc2svc3e.s:26     .text.HAL_MspInit:0000000000000000 HAL_MspInit
     /tmp/cc2svc3e.s:85     .text.HAL_MspInit:0000000000000040 $d
     /tmp/cc2svc3e.s:90     .text.HAL_ADC_MspInit:0000000000000000 $t
     /tmp/cc2svc3e.s:97     .text.HAL_ADC_MspInit:0000000000000000 HAL_ADC_MspInit
     /tmp/cc2svc3e.s:225    .text.HAL_ADC_MspInit:0000000000000088 $d
     /tmp/cc2svc3e.s:231    .text.HAL_ADC_MspDeInit:0000000000000000 $t
     /tmp/cc2svc3e.s:238    .text.HAL_ADC_MspDeInit:0000000000000000 HAL_ADC_MspDeInit
     /tmp/cc2svc3e.s:285    .text.HAL_ADC_MspDeInit:0000000000000028 $d
     /tmp/cc2svc3e.s:293    .text.HAL_I2C_MspInit:0000000000000000 $t
     /tmp/cc2svc3e.s:300    .text.HAL_I2C_MspInit:0000000000000000 HAL_I2C_MspInit
     /tmp/cc2svc3e.s:510    .text.HAL_I2C_MspInit:00000000000000e8 $d
     /tmp/cc2svc3e.s:519    .text.HAL_I2C_MspDeInit:0000000000000000 $t
     /tmp/cc2svc3e.s:526    .text.HAL_I2C_MspDeInit:0000000000000000 HAL_I2C_MspDeInit
     /tmp/cc2svc3e.s:599    .text.HAL_I2C_MspDeInit:0000000000000058 $d
     /tmp/cc2svc3e.s:607    .text.HAL_UART_MspInit:0000000000000000 $t
     /tmp/cc2svc3e.s:614    .text.HAL_UART_MspInit:0000000000000000 HAL_UART_MspInit
     /tmp/cc2svc3e.s:716    .text.HAL_UART_MspInit:0000000000000068 $d
     /tmp/cc2svc3e.s:722    .text.HAL_UART_MspDeInit:0000000000000000 $t
     /tmp/cc2svc3e.s:729    .text.HAL_UART_MspDeInit:0000000000000000 HAL_UART_MspDeInit
     /tmp/cc2svc3e.s:771    .text.HAL_UART_MspDeInit:0000000000000020 $d

UNDEFINED SYMBOLS
HAL_NVIC_SetPriority
HAL_GPIO_Init
HAL_GPIO_DeInit
